"File: BT_Ext_01.c   Assembler  Version HGASM0202      Page 1


   1  0000              ; Generated by holtek-gcc v3.19, Tue Apr 07 11:24:53 2020
   2  0000              ; 
   3  0000              ; Configuration:
   4  0000              ;       with long instruction
   5  0000              ;       Multi-ROM, Multi-RAM
   6  0000              ;       bits_per_rom_unit:16
   7  0000              ;       with mp1
   8  0000              ;       with tbhp, address(0x9)
   9  0000              ;          Use tabrd-const
  10  0000              ;       
  11  0000              ; SFR address of long-instruction arch:
  12  0000              ;    mp0 = -1,1,0
  13  0000              ;    mp1 = 4,3,2
  14  0000              ;    mp2 = 14,13,12
  15  0000              ;    tbp = 9,7,8
  16  0000              ;    acc = 5
  17  0000              ;    pcl = 6
  18  0000              ;    status = 10
  19  0000              ;    bp = 11
  20  0000              ;    intc = 16
  21  0000              ;       
  22  0000              ;       
  23  0000              ; use 'tabrdc' instead of 'tabrd'
  24  0000              ;       
  25  0000              
  26  0000              #pragma translator "holtek-gcc 4.6.4" "3.19" "build 20130711"
  27  0000              ; Rebuild 718
  28  0000              
  29  0000              ir equ [2]
  30  0000              mp equ [3]
  31  0000              sbp equ [4]
  32  0000              acc equ [5]
  33  0000              bp equ [11]
  34  0000              tblp equ [7]
  35  0000              tbhp equ [9]
  36  0000              status equ [10]
  37  0000              c equ [10].0
  38  0000              ac equ [10].1
  39  0000              z equ [10].2
  40  0000              ov equ [10].3
  41  0000              cz equ [10].6
  42  0000              sc equ [10].7
  43  0000              intc equ [16]
  44  0000              mduwr0 equ [59h]
  45  0000              mduwr1 equ [5ah]
  46  0000              mduwr2 equ [5bh]
  47  0000              mduwr3 equ [5ch]
  48  0000              mduwr4 equ [5dh]
  49  0000              mduwr5 equ [5eh]
  50  0000              mduwrctrl equ [5fh]
  51  0000              
  52  0000              extern ra:byte
  53  0000              extern rb:byte
  54  0000              extern rc:byte
  55  0000              extern rd:byte
  56  0000              extern re:byte
  57  0000              extern rf:byte
  58  0000              extern rg:byte
  59  0000              extern rh:byte
"File: BT_Ext_01.ASM  Assembler  Version HGASM0202      Page 2

  60  0000              extern _Crom2Prom:near
  61  0000              extern _Crom2PromNext:near
  62  0000              
  63  0000              RAMBANK 0 @BITDATASEC, @BITDATASEC1
  64  0000              @HCCINIT	.section 'data'
  65  0000              @HCCINIT0	.section 'data'
  66  0000              @BITDATASEC	 .section 'data'
  67  0000              @BITDATASEC1	 .section 'data'
  68  0000              
  69  0000              #pragma debug scope 1 1
  70  0000              	extern __DELAY3:near
  71  0000              	extern __DELAYX3:near
  72  0000              	extern __DELAYX6:near
  73  0000              	extern __DELAYY5:near
  74  0000              	extern __DELAYY3:near
  75  0000              	extern _builtin_holtek_delay_2:byte
  76  0000              ___intc0 equ [16]
  77  0000              ___pg equ [39]
  78  0000              ___pe equ [33]
  79  0000              ___mfi4 equ [55]
  80  0000              public _STM2
  81  0000              #pragma debug scope 2 1

  71  0000              #line 71 "C:\Learn\Program_HT_IDE3000\Source\U3\BT_Ext_01.c"
  71  0000              rombank 0 @STM2_code
  71  0000              @STM2_code .section at 56 'code'
  71  0000  0080     E  	mov r1,a
  71  0001  070B        	mov a,bp
  71  0002  1F0B        	clr bp
  71  0003  2800     R  	jmp _STM2
  71  0004              ROMBANK 0 _STM2
  71  0004              #pragma debug scope 1 1
  71  0004              @dummy56 endp
  71  0004              #pragma debug scope 3 1
  71  0000              _STM2 .section 'code'
  71  0000              _STM2 proc
  71  0000  0080     E  	mov r2,a
  71  0001  070A        	mov a, status
  71  0002  0080     E  	mov r3,a
  71  0003  0703        	mov a,mp
  71  0004  0080     E  	mov r4,a
  71  0005  0704        	mov a,sbp
  71  0006  0080     E  	mov r5,a
  71  0007  0707        	mov a,tblp
  71  0008  0080     E  	mov r6,a
  71  0009  0709        	mov a,tbhp
  71  000A  0080     E  	mov r7,a
  71  000B  3010        	set [16].0
  72  000C              #line 72 "C:\Learn\Program_HT_IDE3000\Source\U3\BT_Ext_01.c"
  72  000C  1F27        	clr [39]
  73  000D              #line 73 "C:\Learn\Program_HT_IDE3000\Source\U3\BT_Ext_01.c"
  73  000D              ;# 73 "C:\Learn\Program_HT_IDE3000\Source\U3\BT_Ext_01.c" 1
  73  000D  1880     R  	rl _ScanCode[0]
  74  000E              #line 74 "C:\Learn\Program_HT_IDE3000\Source\U3\BT_Ext_01.c"
  74  000E  0700     R  	mov a,_ScanCode[0]
  74  000F  0A10        	sub a,16
  74  0010  390A        	snz z
  74  0011  2800     R  	jmp _L2
  75  0012              #line 75 "C:\Learn\Program_HT_IDE3000\Source\U3\BT_Ext_01.c"
  75  0012  0F01        	mov a,1
"File: BT_Ext_01.c   Assembler  Version HGASM0202      Page 3

  75  0013  0080     R  	mov _ScanCode[0],a
  75  0014  0F00     R  	mov a,low offset _Digit
  75  0015  0080     R  	mov _ptr[0],a
  75  0016  0F00     R  	mov a,high offset _Digit
  75  0017  0080     R  	mov _ptr[1],a
  75  0018              _L2:
  77  0018              #line 77 "C:\Learn\Program_HT_IDE3000\Source\U3\BT_Ext_01.c"
  77  0018  0700     R  	mov a,_ScanCode[0]
  77  0019  00A1        	mov [33],a
  77  001A  0700     R  	mov a,_ptr[0]
  77  001B  0080     E  	mov rb,a
  77  001C  0700     R  	mov a,_ptr[1]
  77  001D  0080     E  	mov rc,a
  80  001E              #line 80 "C:\Learn\Program_HT_IDE3000\Source\U3\BT_Ext_01.c"
  80  001E  0F63        	mov a,99
  80  001F  0200     R  	sub a,_R100ms[0]
  80  0020  380A        	snz c
  80  0021  2800     R  	jmp _L3
  80  0022  0F01        	mov a,1
  80  0023  0300     E  	add a,rb
  80  0024  0080     R  	mov _ptr[0],a
  80  0025  0F00        	mov a,0
  80  0026  1300     E  	adc a,rc
  80  0027  0080     R  	mov _ptr[1],a
  80  0028  0700     E  	mov a,rb
  80  0029  0083        	mov mp,a
  80  002A  0700     E  	mov a,rc
  80  002B  0084        	mov sbp,a
  80  002C              	fcall _Crom2Prom
  80  0033  0080     E  	mov ra,a
  80  0034  0F00     R  	mov a,low offset _SEG_TAB
  80  0035  0300     E  	add a,ra
  80  0036  0083        	mov mp,a
  80  0037  0F00     R  	mov a,high offset _SEG_TAB
  80  0038  1F04        	clr sbp
  80  0039  1384        	adcm a,sbp
  80  003A              	fcall _Crom2Prom
  80  0041  00A7        	mov [39],a
  80  0042  2800     R  	jmp _L4
  80  0043              _L3:
  81  0043              #line 81 "C:\Learn\Program_HT_IDE3000\Source\U3\BT_Ext_01.c"
  81  0043  0F01        	mov a,1
  81  0044  0300     E  	add a,rb
  81  0045  0080     R  	mov _ptr[0],a
  81  0046  0F00        	mov a,0
  81  0047  1300     E  	adc a,rc
  81  0048  0080     R  	mov _ptr[1],a
  81  0049  0700     E  	mov a,rb
  81  004A  0083        	mov mp,a
  81  004B  0700     E  	mov a,rc
  81  004C  0084        	mov sbp,a
  81  004D              	fcall _Crom2Prom
  81  0054  0080     E  	mov ra,a
  81  0055  0F00     R  	mov a,low offset _SEG_TAB
  81  0056  0300     E  	add a,ra
  81  0057  0083        	mov mp,a
  81  0058  0F00     R  	mov a,high offset _SEG_TAB
  81  0059  1F04        	clr sbp
  81  005A  1384        	adcm a,sbp
  81  005B              	fcall _Crom2Prom
"File: BT_Ext_01.c   Assembler  Version HGASM0202      Page 4

  81  0062  0080     E  	mov ra,a
  81  0063  3000     E  	set ra.7
  81  0064  0700     E  	mov a,ra
  81  0065  00A7        	mov [39],a
  81  0066              _L4:
  88  0066              #line 88 "C:\Learn\Program_HT_IDE3000\Source\U3\BT_Ext_01.c"
  88  0066  1500     R  	deca _R100ms[0]
  88  0067  0080     E  	mov ra,a
  88  0068  0700     E  	mov a,ra
  88  0069  0080     R  	mov _R100ms[0],a
  88  006A  1080     E  	sz ra
  88  006B  2800     R  	jmp _L6
  89  006C              #line 89 "C:\Learn\Program_HT_IDE3000\Source\U3\BT_Ext_01.c"
  89  006C  0FC8        	mov a,200
  89  006D  0080     R  	mov _R100ms[0],a
  90  006E              #line 90 "C:\Learn\Program_HT_IDE3000\Source\U3\BT_Ext_01.c"
  90  006E  1400     R  	inca _sec[0]
  90  006F  0080     E  	mov ra,a
  90  0070  0700     E  	mov a,ra
  90  0071  0080     R  	mov _sec[0],a
  90  0072  0700     E  	mov a,ra
  90  0073  0A3C        	sub a,60
  90  0074  390A        	snz z
  90  0075  2800     R  	jmp _L6
  91  0076              #line 91 "C:\Learn\Program_HT_IDE3000\Source\U3\BT_Ext_01.c"
  91  0076  1F00     R  	clr _sec[0]
  92  0077              #line 92 "C:\Learn\Program_HT_IDE3000\Source\U3\BT_Ext_01.c"
  92  0077  1400     R  	inca _min[0]
  92  0078  0080     E  	mov ra,a
  92  0079  0700     E  	mov a,ra
  92  007A  0080     R  	mov _min[0],a
  92  007B  0700     E  	mov a,ra
  92  007C  0A3C        	sub a,60
  92  007D  390A        	snz z
  92  007E  2800     R  	jmp _L9
  93  007F              #line 93 "C:\Learn\Program_HT_IDE3000\Source\U3\BT_Ext_01.c"
  93  007F  1F00     R  	clr _min[0]
  94  0080              #line 94 "C:\Learn\Program_HT_IDE3000\Source\U3\BT_Ext_01.c"
  94  0080  1400     R  	inca _hour[0]
  94  0081  0080     E  	mov ra,a
  94  0082  0700     E  	mov a,ra
  94  0083  0080     R  	mov _hour[0],a
  94  0084  0700     E  	mov a,ra
  94  0085  0A18        	sub a,24
  94  0086  390A        	snz z
  94  0087  2800     R  	jmp _L9
  94  0088  1F00     R  	clr _hour[0]
  94  0089              _L9:
  96  0089              #line 96 "C:\Learn\Program_HT_IDE3000\Source\U3\BT_Ext_01.c"
  96  0089  1F00     E  	clr _builtin_holtek_udivmodqi4_2[3]
  96  008A  0700     R  	mov a,_min[0]
  96  008B  0080     E  	mov _builtin_holtek_udivmodqi4_2[0],a
  96  008C  0F0A        	mov a,10
  96  008D  0080     E  	mov _builtin_holtek_udivmodqi4_2[1],a
  96  008E              	fcall _builtin_holtek_udivmodqi4
  96  0095  0700     E  	mov a,_builtin_holtek_udivmodqi4_2[0]
  96  0096  0080     R  	mov _Digit[1],a
  96  0097  1F00     E  	clr _builtin_holtek_udivmodqi4_2[3]
  96  0098  0700     R  	mov a,_min[0]
  96  0099  0080     E  	mov _builtin_holtek_udivmodqi4_2[0],a
"File: BT_Ext_01.c   Assembler  Version HGASM0202      Page 5

  96  009A  0F0A        	mov a,10
  96  009B  0080     E  	mov _builtin_holtek_udivmodqi4_2[1],a
  96  009C              	fcall _builtin_holtek_udivmodqi4
  96  00A3  0700     E  	mov a,_builtin_holtek_udivmodqi4_2[2]
  96  00A4  0080     R  	mov _Digit[0],a
  97  00A5              #line 97 "C:\Learn\Program_HT_IDE3000\Source\U3\BT_Ext_01.c"
  97  00A5  1F00     E  	clr _builtin_holtek_udivmodqi4_2[3]
  97  00A6  0700     R  	mov a,_hour[0]
  97  00A7  0080     E  	mov _builtin_holtek_udivmodqi4_2[0],a
  97  00A8  0F0A        	mov a,10
  97  00A9  0080     E  	mov _builtin_holtek_udivmodqi4_2[1],a
  97  00AA              	fcall _builtin_holtek_udivmodqi4
  97  00B1  0700     E  	mov a,_builtin_holtek_udivmodqi4_2[0]
  97  00B2  0080     R  	mov _Digit[3],a
  97  00B3  1F00     E  	clr _builtin_holtek_udivmodqi4_2[3]
  97  00B4  0700     R  	mov a,_hour[0]
  97  00B5  0080     E  	mov _builtin_holtek_udivmodqi4_2[0],a
  97  00B6  0F0A        	mov a,10
  97  00B7  0080     E  	mov _builtin_holtek_udivmodqi4_2[1],a
  97  00B8              	fcall _builtin_holtek_udivmodqi4
  97  00BF  0700     E  	mov a,_builtin_holtek_udivmodqi4_2[2]
  97  00C0  0080     R  	mov _Digit[2],a
  97  00C1              _L6:
 101  00C1              #line 101 "C:\Learn\Program_HT_IDE3000\Source\U3\BT_Ext_01.c"
 101  00C1  37B7        	clr [55].7
 101  00C2  0700     E  	mov a,r2
 101  00C3  008B        	mov bp,a
 101  00C4  0700     E  	mov a,r3
 101  00C5  008A        	mov status,a
 101  00C6  0700     E  	mov a,r4
 101  00C7  0083        	mov mp,a
 101  00C8  0700     E  	mov a,r5
 101  00C9  0084        	mov sbp,a
 101  00CA  0700     E  	mov a,r6
 101  00CB  0087        	mov tblp,a
 101  00CC  0700     E  	mov a,r7
 101  00CD  0089        	mov tbhp,a
 101  00CE  1D05        	tabrdc acc
 101  00CF  0700     E  	mov a,r1
 101  00D0  0004        	reti
 101  00D1              _STM2 endp
 101  00D1              
 101  00D1              #line 101 "C:\Learn\Program_HT_IDE3000\Source\U3\BT_Ext_01.c"
 101  00D1              #pragma debug scope 1 1
 101  00D1              ___u0sr equ [272]
 101  00D1              ___txr_rxr0 equ [275]
 101  00D1              ___mfi5 equ [56]
 101  00D1              public _UART0
 101  00D1              #pragma debug scope 4 1
 104  00D1              #line 104 "C:\Learn\Program_HT_IDE3000\Source\U3\BT_Ext_01.c"
 104  00D1              rombank 0 @UART0_code
 104  0000              @UART0_code .section at 60 'code'
 104  0000  0080     E  	mov r1,a
 104  0001  070B        	mov a,bp
 104  0002  1F0B        	clr bp
 104  0003  2800     R  	jmp _UART0
 104  0004              ROMBANK 0 _UART0
 104  0004              #pragma debug scope 1 1
 104  0004              @dummy60 endp
 104  0004              #pragma debug scope 5 1
"File: BT_Ext_01.c   Assembler  Version HGASM0202      Page 6

 104  0000              _UART0 .section 'code'
 104  0000              _UART0 proc
 104  0000  0080     E  	mov r2,a
 104  0001  070A        	mov a, status
 104  0002  0080     E  	mov r3,a
 104  0003  0703        	mov a,mp
 104  0004  0080     E  	mov r4,a
 104  0005  0704        	mov a,sbp
 104  0006  0080     E  	mov r5,a
 105  0007              #line 105 "C:\Learn\Program_HT_IDE3000\Source\U3\BT_Ext_01.c"
 105  0007  B910 0001   	lsnz [272].2
 105  0009  2800     R  	jmp _L13
 105  000A              #line 105 "C:\Learn\Program_HT_IDE3000\Source\U3\BT_Ext_01.c"
 105  000A  0700     R  	mov a,___i_3015[0]
 105  000B  0080     E  	mov ra,a
 105  000C  1400     E  	inca ra
 105  000D  0080     R  	mov ___i_3015[0],a
 105  000E  0F00     R  	mov a,low offset _buf
 105  000F  0300     E  	add a,ra
 105  0010  0083        	mov mp,a
 105  0011  0F00     R  	mov a,high offset _buf
 105  0012  1F04        	clr sbp
 105  0013  1384        	adcm a,sbp
 105  0014  8713 0001   	lmov a,[275]
 105  0016  0082        	mov ir,a
 105  0017              _L13:
 106  0017              #line 106 "C:\Learn\Program_HT_IDE3000\Source\U3\BT_Ext_01.c"
 106  0017  0F05        	mov a,5
 106  0018  0200     R  	sub a,___i_3015[0]
 106  0019  3C0A        	sz c
 106  001A  2800     R  	jmp _L14
 107  001B              #line 107 "C:\Learn\Program_HT_IDE3000\Source\U3\BT_Ext_01.c"
 107  001B  3000     R  	set _FG_RX
 108  001C              #line 108 "C:\Learn\Program_HT_IDE3000\Source\U3\BT_Ext_01.c"
 108  001C  1F00     R  	clr ___i_3015[0]
 108  001D              _L14:
 110  001D              #line 110 "C:\Learn\Program_HT_IDE3000\Source\U3\BT_Ext_01.c"
 110  001D  3638        	clr [56].4
 110  001E  0700     E  	mov a,r2
 110  001F  008B        	mov bp,a
 110  0020  0700     E  	mov a,r3
 110  0021  008A        	mov status,a
 110  0022  0700     E  	mov a,r4
 110  0023  0083        	mov mp,a
 110  0024  0700     E  	mov a,r5
 110  0025  0084        	mov sbp,a
 110  0026  0700     E  	mov a,r1
 110  0027  0004        	reti
 110  0028              _UART0 endp
 110  0028              
 110  0028              #line 110 "C:\Learn\Program_HT_IDE3000\Source\U3\BT_Ext_01.c"
 110  0028              #pragma debug scope 1 1
 110  0028              public _Delayms
 110  0028              #pragma debug scope 6 1
 113  0028              #line 113 "C:\Learn\Program_HT_IDE3000\Source\U3\BT_Ext_01.c"
 113  0000              _Delayms .section 'code'
 113  0000              _Delayms proc
 113  0000              public _Delayms_2
 113  0000  0002[           local _Delayms_2 db 2 dup(?)	; 2,0
            00
"File: BT_Ext_01.c   Assembler  Version HGASM0202      Page 7

            ]
 113  0002              #pragma debug variable 10 6 _Delayms_2+0 "i"
 114  0002              #line 114 "C:\Learn\Program_HT_IDE3000\Source\U3\BT_Ext_01.c"
 114  0000  1F00     E  	clr rb
 114  0001  1F00     E  	clr rc
 114  0002  2800     R  	jmp _L19
 114  0003              _L20:
 114  0003              #line 114 "C:\Learn\Program_HT_IDE3000\Source\U3\BT_Ext_01.c"
 114  0003              ;# 114 "C:\Learn\Program_HT_IDE3000\Source\U3\BT_Ext_01.c" 1
 114  0003              	IF 2000>263690
 114  0003              ;# 114 "C:\Learn\Program_HT_IDE3000\Source\U3\BT_Ext_01.c" 1
 114  0003              	ERRMESSAGE 'the value 2000of the argument exceeds the maxinum 263690'
 114  0003              	ENDIF
 114  0003              ;# 114 "C:\Learn\Program_HT_IDE3000\Source\U3\BT_Ext_01.c" 1
 114  0003              	IF 2000<0
 114  0003              ;# 114 "C:\Learn\Program_HT_IDE3000\Source\U3\BT_Ext_01.c" 1
 114  0003              	ERRMESSAGE 'the value 2000 of the argument exceeds the mininum 0'
 114  0003              	ENDIF
 114  0003              ;# 114 "C:\Learn\Program_HT_IDE3000\Source\U3\BT_Ext_01.c" 1
 114  0003              	IF 2000==0
 114  0003              ;# 114 "C:\Learn\Program_HT_IDE3000\Source\U3\BT_Ext_01.c" 1
 114  0003              	JMP $
 114  0003              	ENDIF
 114  0003              ;# 114 "C:\Learn\Program_HT_IDE3000\Source\U3\BT_Ext_01.c" 1
 114  0003              	IF (2000>=1) AND (2000<( 4 + __PBP__ * 2))
 114  0003              ;# 114 "C:\Learn\Program_HT_IDE3000\Source\U3\BT_Ext_01.c" 1
 114  0003              	NOP
 114  0003              	ENDIF
 114  0003              ;# 114 "C:\Learn\Program_HT_IDE3000\Source\U3\BT_Ext_01.c" 1
 114  0003              	IF (2000>=2) AND (2000<( 4 + __PBP__ * 2))
 114  0003              ;# 114 "C:\Learn\Program_HT_IDE3000\Source\U3\BT_Ext_01.c" 1
 114  0003              	NOP
 114  0003              	ENDIF
 114  0003              ;# 114 "C:\Learn\Program_HT_IDE3000\Source\U3\BT_Ext_01.c" 1
 114  0003              	IF (2000>=3) AND (2000<( 4 + __PBP__ * 2))
 114  0003              ;# 114 "C:\Learn\Program_HT_IDE3000\Source\U3\BT_Ext_01.c" 1
 114  0003              	NOP
 114  0003              	ENDIF
 114  0003              ;# 114 "C:\Learn\Program_HT_IDE3000\Source\U3\BT_Ext_01.c" 1
 114  0003              	IF (2000>=4) AND (2000<( 4 + __PBP__ * 2)) AND ( __PBP__ > 0 )
 114  0003              ;# 114 "C:\Learn\Program_HT_IDE3000\Source\U3\BT_Ext_01.c" 1
 114  0003              	NOP
 114  0003              	ENDIF
 114  0003              ;# 114 "C:\Learn\Program_HT_IDE3000\Source\U3\BT_Ext_01.c" 1
 114  0003              	IF (2000>=5) AND (2000<( 4 + __PBP__ * 2)) AND ( __PBP__ > 0 )
 114  0003              ;# 114 "C:\Learn\Program_HT_IDE3000\Source\U3\BT_Ext_01.c" 1
 114  0003              	NOP
 114  0003              	ENDIF
 114  0003              ;# 114 "C:\Learn\Program_HT_IDE3000\Source\U3\BT_Ext_01.c" 1
 114  0003              	IF (2000>=6) AND (2000<( 4 + __PBP__ * 2))  AND ( __PBP__ > 1 )
 114  0003              ;# 114 "C:\Learn\Program_HT_IDE3000\Source\U3\BT_Ext_01.c" 1
 114  0003              	NOP
 114  0003              	ENDIF
 114  0003              ;# 114 "C:\Learn\Program_HT_IDE3000\Source\U3\BT_Ext_01.c" 1
 114  0003              	IF (2000>=7) AND (2000<( 4 + __PBP__ * 2))  AND ( __PBP__ > 1 )
 114  0003              ;# 114 "C:\Learn\Program_HT_IDE3000\Source\U3\BT_Ext_01.c" 1
 114  0003              	NOP
 114  0003              	ENDIF
 114  0003              ;# 114 "C:\Learn\Program_HT_IDE3000\Source\U3\BT_Ext_01.c" 1
 114  0003              	IF (2000>=8) AND (2000<( 4 + __PBP__ * 2))  AND ( __PBP__ > 2 )
"File: BT_Ext_01.c   Assembler  Version HGASM0202      Page 8

 114  0003              ;# 114 "C:\Learn\Program_HT_IDE3000\Source\U3\BT_Ext_01.c" 1
 114  0003              	NOP
 114  0003              	ENDIF
 114  0003              ;# 114 "C:\Learn\Program_HT_IDE3000\Source\U3\BT_Ext_01.c" 1
 114  0003              	IF (2000==9)  AND ( __PBP__ > 2 )
 114  0003              ;# 114 "C:\Learn\Program_HT_IDE3000\Source\U3\BT_Ext_01.c" 1
 114  0003              	NOP
 114  0003              	ENDIF
 114  0003              ;# 114 "C:\Learn\Program_HT_IDE3000\Source\U3\BT_Ext_01.c" 1
 114  0003              	IF (2000< ( 8 + __PBP__ * 2)) AND (2000>( 3 + __PBP__ * 2))
 114  0003              ;# 114 "C:\Learn\Program_HT_IDE3000\Source\U3\BT_Ext_01.c" 1
 114  0003              	fcall __DELAY3 + ( 7 + __PBP__ * 2) -2000
 114  0003              	ENDIF
 114  0003              ;# 114 "C:\Learn\Program_HT_IDE3000\Source\U3\BT_Ext_01.c" 1
 114  0003              	IF (2000< ( 0404h + __PBP__ * 2)) AND (2000>( 7 + __PBP__ * 2))
 114  0003              ;# 114 "C:\Learn\Program_HT_IDE3000\Source\U3\BT_Ext_01.c" 1
 114  0003              	MOV A,(2000-( 4 + __PBP__ * 2))/4
 114  0003              ;# 114 "C:\Learn\Program_HT_IDE3000\Source\U3\BT_Ext_01.c" 1
 114  0003              	fcall __DELAYX3 + 3 -((2000-( 4 + __PBP__ * 2)) MOD 4) 
 114  0003              	ENDIF
 114  0003              ;# 114 "C:\Learn\Program_HT_IDE3000\Source\U3\BT_Ext_01.c" 1
 114  0003              	IF (2000< ( 040bh + __PBP__ * 2)) AND (2000> ( 0403h + __PBP__ * 2))
 114  0003              ;# 114 "C:\Learn\Program_HT_IDE3000\Source\U3\BT_Ext_01.c" 1
 114  0003              	MOV A,0 
 114  0003              ;# 114 "C:\Learn\Program_HT_IDE3000\Source\U3\BT_Ext_01.c" 1
 114  0003              	fcall __DELAYX6 + ( 040ah + __PBP__ * 2) -2000
 114  0003              	ENDIF
 114  0003              ;# 114 "C:\Learn\Program_HT_IDE3000\Source\U3\BT_Ext_01.c" 1
 114  0003              	IF (2000 >= ( 040bh + __PBP__ * 2)) AND ((((2000-( 9 + __PBP__ * 2))%0402h)/4+1)>256)
 114  0003              ;# 114 "C:\Learn\Program_HT_IDE3000\Source\U3\BT_Ext_01.c" 1
 114  0003              	MOV A,(2000-( 9 + __PBP__ * 2))/0402h
 114  0003              ;# 114 "C:\Learn\Program_HT_IDE3000\Source\U3\BT_Ext_01.c" 1
 114  0003              	MOV _builtin_holtek_delay_2,A
 114  0003              ;# 114 "C:\Learn\Program_HT_IDE3000\Source\U3\BT_Ext_01.c" 1
 114  0003              	MOV A,0
 114  0003              ;# 114 "C:\Learn\Program_HT_IDE3000\Source\U3\BT_Ext_01.c" 1
 114  0003              	fcall __DELAYY5 +5- (((2000-( 9 + __PBP__ * 2))%0402h)%6) 
 114  0003              	ENDIF
 114  0003              ;# 114 "C:\Learn\Program_HT_IDE3000\Source\U3\BT_Ext_01.c" 1
 114  0003              	IF (2000 >= ( 040bh + __PBP__ * 2)) AND ((((2000-( 9 + __PBP__ * 2))%0402h)/4+1)<=256)
 114  0003              ;# 114 "C:\Learn\Program_HT_IDE3000\Source\U3\BT_Ext_01.c" 1
 114  0003  0F01        	MOV A,(2000-( 9 + __PBP__ * 2))/0402h
 114  0004              ;# 114 "C:\Learn\Program_HT_IDE3000\Source\U3\BT_Ext_01.c" 1
 114  0004  0080     E  	MOV _builtin_holtek_delay_2,A
 114  0005              ;# 114 "C:\Learn\Program_HT_IDE3000\Source\U3\BT_Ext_01.c" 1
 114  0005  0FF0        	MOV A,((2000-( 9 + __PBP__ * 2))%0402h)/4+1
 114  0006              ;# 114 "C:\Learn\Program_HT_IDE3000\Source\U3\BT_Ext_01.c" 1
 114  0006              	fcall __DELAYY3 +3-(((2000-( 9 + __PBP__ * 2))%0402h)%4) 
 114  000D              	ENDIF
 114  000D  1480     E  	inc rb
 114  000E  3D0A        	sz z
 114  000F  1480     E  	inc rc
 114  0010              _L19:
 114  0010  0700     E  	mov a,rb
 114  0011  0200     R  	sub a,_Delayms_2[0]
 114  0012  0700     E  	mov a,rc
 114  0013  1200     R  	sbc a,_Delayms_2[1]
 114  0014  3B0A        	snz cz
 114  0015  2800     R  	jmp _L20
 114  0016  0003        	ret
"File: BT_Ext_01.c   Assembler  Version HGASM0202      Page 9

 114  0017              _Delayms endp
 114  0017              #line 114 "C:\Learn\Program_HT_IDE3000\Source\U3\BT_Ext_01.c"
 114  0017              #pragma debug scope 1 1
 114  0017              ___wdtc equ [62]
 114  0017              ___pgc equ [40]
 114  0017              ___pec equ [34]
 114  0017              ___stm2c0 equ [313]
 114  0017              ___stm2c1 equ [314]
 114  0017              ___stm2al equ [317]
 114  0017              ___stm2ah equ [318]
 114  0017              ___pac equ [21]
 114  0017              ___papu equ [22]
 114  0017              ___pas1 equ [334]
 114  0017              ___u0cr1 equ [273]
 114  0017              ___u0cr2 equ [274]
 114  0017              ___brg0 equ [276]
 114  0017              ___intc3 equ [19]
 114  0017              ___ptm0c0 equ [70]
 114  0017              ___ptm0c1 equ [71]
 114  0017              ___pcs0 equ [337]
 114  0017              ___sledc1 equ [86]
 114  0017              ___ptm0al equ [74]
 114  0017              ___ptm0ah equ [75]
 114  0017              ___pa equ [20]
 114  0017              public _main
 114  0017              #pragma debug scope 7 1
  22  0017              #line 22 "C:\Learn\Program_HT_IDE3000\Source\U3\BT_Ext_01.c"
  22  0017              IFDEF WITH_DEFAULT_STARTUP
  22  0017              extern _main_initial0:near
  22  0017              extern _main_startup:near
  22  0017              ENDIF
  22  0017              
  22  0017              ROMBANK 0 @start
  22  0000              @start .section com_l 'code'
  22  0000              _main_startup1:
  22  0000              @start .section com_e 'code'
  22  0000  0F00     R  	mov a,bank _main
  22  0001  008B        	mov bp,a
  22  0002  2800     R  	jmp _main
  22  0003              
  22  0000              _main .section 'code'
  22  0000              _main proc
  22  0000  0003[           local _main_2 db 3 dup(?)
            00
            ]
  22  0003              #pragma debug variable 8 7 _main_2+0 "Ahour"
  22  0003              #pragma debug variable 8 7 _main_2+1 "Amin"
  22  0003              #pragma debug variable 8 7 _main_2+2 "Asec"
  24  0003              #line 24 "C:\Learn\Program_HT_IDE3000\Source\U3\BT_Ext_01.c"
  24  0000  0FAF        	mov a,175
  24  0001  00BE        	mov [62],a
  25  0002              #line 25 "C:\Learn\Program_HT_IDE3000\Source\U3\BT_Ext_01.c"
  25  0002  1F27        	clr [39]
  25  0003  1F28        	clr [40]
  26  0004              #line 26 "C:\Learn\Program_HT_IDE3000\Source\U3\BT_Ext_01.c"
  26  0004  0FF0        	mov a,240
  26  0005  06A1        	andm a,[33]
  26  0006  0FF0        	mov a,240
  26  0007  06A2        	andm a,[34]
  27  0008              #line 27 "C:\Learn\Program_HT_IDE3000\Source\U3\BT_Ext_01.c"
"File: BT_Ext_01.c   Assembler  Version HGASM0202      Page 10

  27  0008  9F39 0001   	lclr [313]
  28  000A              #line 28 "C:\Learn\Program_HT_IDE3000\Source\U3\BT_Ext_01.c"
  28  000A  0FC1        	mov a,193
  28  000B  80BA 0001   	lmov [314],a
  29  000D              #line 29 "C:\Learn\Program_HT_IDE3000\Source\U3\BT_Ext_01.c"
  29  000D  0F10        	mov a,16
  29  000E  80BD 0001   	lmov [317],a
  29  0010  0F27        	mov a,39
  29  0011  80BE 0001   	lmov [318],a
  31  0013              #line 31 "C:\Learn\Program_HT_IDE3000\Source\U3\BT_Ext_01.c"
  31  0013  3095        	set [21].1
  31  0014  3096        	set [22].1
  32  0015              #line 32 "C:\Learn\Program_HT_IDE3000\Source\U3\BT_Ext_01.c"
  32  0015  0F30        	mov a,48
  32  0016  80CE 0001   	lmov [334],a
  33  0018              #line 33 "C:\Learn\Program_HT_IDE3000\Source\U3\BT_Ext_01.c"
  33  0018  0F80        	mov a,128
  33  0019  8091 0001   	lmov [273],a
  34  001B              #line 34 "C:\Learn\Program_HT_IDE3000\Source\U3\BT_Ext_01.c"
  34  001B  0F64        	mov a,100
  34  001C  8092 0001   	lmov [274],a
  35  001E              #line 35 "C:\Learn\Program_HT_IDE3000\Source\U3\BT_Ext_01.c"
  35  001E  0F33        	mov a,51
  35  001F  8094 0001   	lmov [276],a
  36  0021              #line 36 "C:\Learn\Program_HT_IDE3000\Source\U3\BT_Ext_01.c"
  36  0021  3193        	set [19].3
  36  0022  3038        	set [56].0
  38  0023              #line 38 "C:\Learn\Program_HT_IDE3000\Source\U3\BT_Ext_01.c"
  38  0023  1F46        	clr [70]
  38  0024  0F31        	mov a,49
  38  0025  00C7        	mov [71],a
  38  0026  0F20        	mov a,32
  38  0027  80D1 0001   	lmov [337],a
  39  0029              #line 39 "C:\Learn\Program_HT_IDE3000\Source\U3\BT_Ext_01.c"
  39  0029  0F02        	mov a,2
  39  002A  00D6        	mov [86],a
  41  002B              #line 41 "C:\Learn\Program_HT_IDE3000\Source\U3\BT_Ext_01.c"
  41  002B  1F00     E  	clr _builtin_holtek_udivmodqi4_2[3]
  41  002C  0700     R  	mov a,_min[0]
  41  002D  0080     E  	mov _builtin_holtek_udivmodqi4_2[0],a
  41  002E  0F0A        	mov a,10
  41  002F  0080     E  	mov _builtin_holtek_udivmodqi4_2[1],a
  41  0030              	fcall _builtin_holtek_udivmodqi4
  41  0037  0700     E  	mov a,_builtin_holtek_udivmodqi4_2[0]
  41  0038  0080     R  	mov _Digit[1],a
  41  0039  1F00     E  	clr _builtin_holtek_udivmodqi4_2[3]
  41  003A  0700     R  	mov a,_min[0]
  41  003B  0080     E  	mov _builtin_holtek_udivmodqi4_2[0],a
  41  003C  0F0A        	mov a,10
  41  003D  0080     E  	mov _builtin_holtek_udivmodqi4_2[1],a
  41  003E              	fcall _builtin_holtek_udivmodqi4
  41  0045  0700     E  	mov a,_builtin_holtek_udivmodqi4_2[2]
  41  0046  0080     R  	mov _Digit[0],a
  42  0047              #line 42 "C:\Learn\Program_HT_IDE3000\Source\U3\BT_Ext_01.c"
  42  0047  1F00     E  	clr _builtin_holtek_udivmodqi4_2[3]
  42  0048  0700     R  	mov a,_hour[0]
  42  0049  0080     E  	mov _builtin_holtek_udivmodqi4_2[0],a
  42  004A  0F0A        	mov a,10
  42  004B  0080     E  	mov _builtin_holtek_udivmodqi4_2[1],a
  42  004C              	fcall _builtin_holtek_udivmodqi4
"File: BT_Ext_01.c   Assembler  Version HGASM0202      Page 11

  42  0053  0700     E  	mov a,_builtin_holtek_udivmodqi4_2[0]
  42  0054  0080     R  	mov _Digit[3],a
  42  0055  1F00     E  	clr _builtin_holtek_udivmodqi4_2[3]
  42  0056  0700     R  	mov a,_hour[0]
  42  0057  0080     E  	mov _builtin_holtek_udivmodqi4_2[0],a
  42  0058  0F0A        	mov a,10
  42  0059  0080     E  	mov _builtin_holtek_udivmodqi4_2[1],a
  42  005A              	fcall _builtin_holtek_udivmodqi4
  42  0061  0700     E  	mov a,_builtin_holtek_udivmodqi4_2[2]
  42  0062  0080     R  	mov _Digit[2],a
  43  0063              #line 43 "C:\Learn\Program_HT_IDE3000\Source\U3\BT_Ext_01.c"
  43  0063  0FC8        	mov a,200
  43  0064  0080     R  	mov _R100ms[0],a
  44  0065              #line 44 "C:\Learn\Program_HT_IDE3000\Source\U3\BT_Ext_01.c"
  44  0065  0F00     R  	mov a,low offset _Digit
  44  0066  0080     R  	mov _ptr[0],a
  44  0067  0F00     R  	mov a,high offset _Digit
  44  0068  0080     R  	mov _ptr[1],a
  44  0069  0F80        	mov a,128
  44  006A  0080     R  	mov _ScanCode[0],a
  45  006B              #line 45 "C:\Learn\Program_HT_IDE3000\Source\U3\BT_Ext_01.c"
  45  006B  3113        	set [19].2
  45  006C  31B7        	set [55].3
  46  006D              #line 46 "C:\Learn\Program_HT_IDE3000\Source\U3\BT_Ext_01.c"
  46  006D  3010        	set [16].0
  46  006E  B1B9 0001   	lset [313].3
  47  0070              #line 47 "C:\Learn\Program_HT_IDE3000\Source\U3\BT_Ext_01.c"
  47  0070  1F00     E  	clr _builtin_holtek_udivmodqi4_2[3]
  47  0071  0700     R  	mov a,_min[0]
  47  0072  0080     E  	mov _builtin_holtek_udivmodqi4_2[0],a
  47  0073  0F0A        	mov a,10
  47  0074  0080     E  	mov _builtin_holtek_udivmodqi4_2[1],a
  47  0075              	fcall _builtin_holtek_udivmodqi4
  47  007C  0700     E  	mov a,_builtin_holtek_udivmodqi4_2[0]
  47  007D  0080     R  	mov _Digit[1],a
  47  007E  1F00     E  	clr _builtin_holtek_udivmodqi4_2[3]
  47  007F  0700     R  	mov a,_min[0]
  47  0080  0080     E  	mov _builtin_holtek_udivmodqi4_2[0],a
  47  0081  0F0A        	mov a,10
  47  0082  0080     E  	mov _builtin_holtek_udivmodqi4_2[1],a
  47  0083              	fcall _builtin_holtek_udivmodqi4
  47  008A  0700     E  	mov a,_builtin_holtek_udivmodqi4_2[2]
  47  008B  0080     R  	mov _Digit[0],a
  48  008C              #line 48 "C:\Learn\Program_HT_IDE3000\Source\U3\BT_Ext_01.c"
  48  008C  1F00     E  	clr _builtin_holtek_udivmodqi4_2[3]
  48  008D  0700     R  	mov a,_hour[0]
  48  008E  0080     E  	mov _builtin_holtek_udivmodqi4_2[0],a
  48  008F  0F0A        	mov a,10
  48  0090  0080     E  	mov _builtin_holtek_udivmodqi4_2[1],a
  48  0091              	fcall _builtin_holtek_udivmodqi4
  48  0098  0700     E  	mov a,_builtin_holtek_udivmodqi4_2[0]
  48  0099  0080     R  	mov _Digit[3],a
  48  009A  1F00     E  	clr _builtin_holtek_udivmodqi4_2[3]
  48  009B  0700     R  	mov a,_hour[0]
  48  009C  0080     E  	mov _builtin_holtek_udivmodqi4_2[0],a
  48  009D  0F0A        	mov a,10
  48  009E  0080     E  	mov _builtin_holtek_udivmodqi4_2[1],a
  48  009F              	fcall _builtin_holtek_udivmodqi4
  48  00A6  0700     E  	mov a,_builtin_holtek_udivmodqi4_2[2]
  48  00A7  0080     R  	mov _Digit[2],a
"File: BT_Ext_01.c   Assembler  Version HGASM0202      Page 12

  22  00A8              #line 22 "C:\Learn\Program_HT_IDE3000\Source\U3\BT_Ext_01.c"
  22  00A8  1F00     R  	clr _main_2[2]
  22  00A9  1F00     R  	clr _main_2[1]
  22  00AA  0F19        	mov a,25
  22  00AB  0080     R  	mov _main_2[0],a
  22  00AC              _L29:
  50  00AC              #line 50 "C:\Learn\Program_HT_IDE3000\Source\U3\BT_Ext_01.c"
  50  00AC  3800     R  	snz _FG_RX
  50  00AD  2800     R  	jmp _L22
  51  00AE              #line 51 "C:\Learn\Program_HT_IDE3000\Source\U3\BT_Ext_01.c"
  51  00AE  3400     R  	clr _FG_RX
  52  00AF              #line 52 "C:\Learn\Program_HT_IDE3000\Source\U3\BT_Ext_01.c"
  52  00AF  0700     R  	mov a,_buf[0]
  52  00B0  0080     R  	mov _hour[0],a
  52  00B1  0700     R  	mov a,_buf[1]
  52  00B2  0080     R  	mov _min[0],a
  52  00B3  0700     R  	mov a,_buf[2]
  52  00B4  0080     R  	mov _sec[0],a
  53  00B5              #line 53 "C:\Learn\Program_HT_IDE3000\Source\U3\BT_Ext_01.c"
  53  00B5  0700     R  	mov a,_buf[3]
  53  00B6  0080     R  	mov _main_2[0],a
  53  00B7  0700     R  	mov a,_buf[4]
  53  00B8  0080     R  	mov _main_2[1],a
  53  00B9  0700     R  	mov a,_buf[5]
  53  00BA  0080     R  	mov _main_2[2],a
  54  00BB              #line 54 "C:\Learn\Program_HT_IDE3000\Source\U3\BT_Ext_01.c"
  54  00BB  1F00     E  	clr _builtin_holtek_udivmodqi4_2[3]
  54  00BC  0700     R  	mov a,_min[0]
  54  00BD  0080     E  	mov _builtin_holtek_udivmodqi4_2[0],a
  54  00BE  0F0A        	mov a,10
  54  00BF  0080     E  	mov _builtin_holtek_udivmodqi4_2[1],a
  54  00C0              	fcall _builtin_holtek_udivmodqi4
  54  00C7  0700     E  	mov a,_builtin_holtek_udivmodqi4_2[0]
  54  00C8  0080     R  	mov _Digit[1],a
  54  00C9  1F00     E  	clr _builtin_holtek_udivmodqi4_2[3]
  54  00CA  0700     R  	mov a,_min[0]
  54  00CB  0080     E  	mov _builtin_holtek_udivmodqi4_2[0],a
  54  00CC  0F0A        	mov a,10
  54  00CD  0080     E  	mov _builtin_holtek_udivmodqi4_2[1],a
  54  00CE              	fcall _builtin_holtek_udivmodqi4
  54  00D5  0700     E  	mov a,_builtin_holtek_udivmodqi4_2[2]
  54  00D6  0080     R  	mov _Digit[0],a
  55  00D7              #line 55 "C:\Learn\Program_HT_IDE3000\Source\U3\BT_Ext_01.c"
  55  00D7  1F00     E  	clr _builtin_holtek_udivmodqi4_2[3]
  55  00D8  0700     R  	mov a,_hour[0]
  55  00D9  0080     E  	mov _builtin_holtek_udivmodqi4_2[0],a
  55  00DA  0F0A        	mov a,10
  55  00DB  0080     E  	mov _builtin_holtek_udivmodqi4_2[1],a
  55  00DC              	fcall _builtin_holtek_udivmodqi4
  55  00E3  0700     E  	mov a,_builtin_holtek_udivmodqi4_2[0]
  55  00E4  0080     R  	mov _Digit[3],a
  55  00E5  1F00     E  	clr _builtin_holtek_udivmodqi4_2[3]
  55  00E6  0700     R  	mov a,_hour[0]
  55  00E7  0080     E  	mov _builtin_holtek_udivmodqi4_2[0],a
  55  00E8  0F0A        	mov a,10
  55  00E9  0080     E  	mov _builtin_holtek_udivmodqi4_2[1],a
  55  00EA              	fcall _builtin_holtek_udivmodqi4
  55  00F1  0700     E  	mov a,_builtin_holtek_udivmodqi4_2[2]
  55  00F2  0080     R  	mov _Digit[2],a
  56  00F3              #line 56 "C:\Learn\Program_HT_IDE3000\Source\U3\BT_Ext_01.c"
"File: BT_Ext_01.c   Assembler  Version HGASM0202      Page 13

  56  00F3  0F90        	mov a,144
  56  00F4  00CA        	mov [74],a
  56  00F5  0F01        	mov a,1
  56  00F6  00CB        	mov [75],a
  57  00F7              #line 57 "C:\Learn\Program_HT_IDE3000\Source\U3\BT_Ext_01.c"
  57  00F7  31C6        	set [70].3
  57  00F8  0F50        	mov a,80
  57  00F9  0080     R  	mov _Delayms_2[0],a
  57  00FA  1F00     R  	clr _Delayms_2[1]
  57  00FB              	fcall _Delayms
  57  0102  35C6        	clr [70].3
  57  0103              _L22:
  59  0103              #line 59 "C:\Learn\Program_HT_IDE3000\Source\U3\BT_Ext_01.c"
  59  0103  0700     R  	mov a,_hour[0]
  59  0104  0200     R  	sub a,_main_2[0]
  59  0105  390A        	snz z
  59  0106  2800     R  	jmp _L31
  59  0107  0700     R  	mov a,_min[0]
  59  0108  0200     R  	sub a,_main_2[1]
  59  0109  390A        	snz z
  59  010A  2800     R  	jmp _L31
  59  010B  3000     E  	set rb.0
  59  010C  0700     R  	mov a,_sec[0]
  59  010D  0200     R  	sub a,_main_2[2]
  59  010E  3D0A        	sz z
  59  010F  2800     R  	jmp _L27
  59  0110              _L31:
  59  0110  1F00     E  	clr rb
  59  0111              _L27:
  60  0111              #line 60 "C:\Learn\Program_HT_IDE3000\Source\U3\BT_Ext_01.c"
  60  0111  3800     E  	snz rb.0
  60  0112  2800     R  	jmp _L29
  61  0113              #line 61 "C:\Learn\Program_HT_IDE3000\Source\U3\BT_Ext_01.c"
  61  0113  0FF4        	mov a,244
  61  0114  00CA        	mov [74],a
  61  0115  0F01        	mov a,1
  61  0116  00CB        	mov [75],a
  62  0117              #line 62 "C:\Learn\Program_HT_IDE3000\Source\U3\BT_Ext_01.c"
  62  0117  31C6        	set [70].3
  62  0118  0F3C        	mov a,60
  62  0119  0080     R  	mov _Delayms_2[0],a
  62  011A  1F00     R  	clr _Delayms_2[1]
  62  011B              	fcall _Delayms
  62  0122  35C6        	clr [70].3
  63  0123              #line 63 "C:\Learn\Program_HT_IDE3000\Source\U3\BT_Ext_01.c"
  63  0123  0FE8        	mov a,232
  63  0124  00CA        	mov [74],a
  63  0125  0F03        	mov a,3
  63  0126  00CB        	mov [75],a
  64  0127              #line 64 "C:\Learn\Program_HT_IDE3000\Source\U3\BT_Ext_01.c"
  64  0127  31C6        	set [70].3
  64  0128  0F3C        	mov a,60
  64  0129  0080     R  	mov _Delayms_2[0],a
  64  012A  1F00     R  	clr _Delayms_2[1]
  64  012B              	fcall _Delayms
  64  0132  35C6        	clr [70].3
  65  0133              #line 65 "C:\Learn\Program_HT_IDE3000\Source\U3\BT_Ext_01.c"
  65  0133  1914        	rra [20]
  65  0134  0E7F        	and a,07fh
  65  0135  0080     E  	mov rb,a
"File: BT_Ext_01.c   Assembler  Version HGASM0202      Page 14

  65  0136  1F00     E  	clr rc
  65  0137  0F01        	mov a,1  
  65  0138  0680     E  	andm a,rb  
  65  0139  0F00        	mov a,0  
  65  013A  0680     E  	andm a,rc
  65  013B              	;
  66  013B              #line 66 "C:\Learn\Program_HT_IDE3000\Source\U3\BT_Ext_01.c"
  66  013B  3800     R  	snz _FG_RX
  66  013C  2800     R  	jmp _L27
  66  013D  3400     R  	clr _FG_RX
  66  013E  2800     R  	jmp _L29
  66  013F  2800     R  	jmp $
  66  0140              _main endp
  66  0140              
  66  0140              @dummy endp
  66  0140              
  66  0140              #line 66 "C:\Learn\Program_HT_IDE3000\Source\U3\BT_Ext_01.c"
  66  0140              #pragma debug scope 1 1
  66  0000              @HCCINIT	.section 'data'
 104  0000              #line 104 "C:\Learn\Program_HT_IDE3000\Source\U3\BT_Ext_01.c"
 104  0000              @HCCINIT___i_3015 .section 'data'
 104  0000              ___i_3015 label byte
 104  0000              #pragma debug variable 8 5 ___i_3015 "i"
 104  0000              	db 0
 104  0000              @ROMDATA_BASE .section inpage 'code'
 104  0000              	db 0
 104  0001              @HCCINIT___i_3015 .section 'data'
  19  0001              #line 19 "C:\Learn\Program_HT_IDE3000\Source\U3\BT_Ext_01.c"
  19  0001              public _FG_RX
  19  0000              @BITDATASEC .section 'data'
  19  0000  00          _FG_RX	dbit 0
  19  0001              #pragma debug variable 2 1 _FG_RX "FG_RX"
  19  0001              
  19  0000              @HCCINIT .section 'data'
  18  0000              #line 18 "C:\Learn\Program_HT_IDE3000\Source\U3\BT_Ext_01.c"
  18  0000              public _buf
  18  0000              @HCCINIT0_buf .section 'data'
  18  0000  0006[       _buf	db 6 dup(0)
            00
            ]
  18  0006              #pragma debug array 42 8 6 1
  18  0006              #pragma debug array 42 8 6 1
  18  0006              #pragma debug variable 42 1 _buf "buf"
  18  0006              
  18  0000              @HCCINIT .section 'data'
  18  0000              public _sec
  17  0000              #line 17 "C:\Learn\Program_HT_IDE3000\Source\U3\BT_Ext_01.c"
  17  0000              @HCCINIT_sec .section 'data'
  17  0000              _sec label byte
  17  0000              #pragma debug variable 8 1 _sec "sec"
  17  0000              	db 0
  17  0001              @ROMDATA_BASE .section inpage 'code'
  17  0001              	db 0
  17  0001              @HCCINIT_sec .section 'data'
  17  0001              public _hour
  17  0001              #line 17 "C:\Learn\Program_HT_IDE3000\Source\U3\BT_Ext_01.c"
  17  0000              @HCCINIT_hour .section 'data'
  17  0000              _hour label byte
  17  0000              #pragma debug variable 8 1 _hour "hour"
  17  0000              	db 0
"File: BT_Ext_01.c   Assembler  Version HGASM0202      Page 15

  17  0001              @ROMDATA_BASE .section inpage 'code'
  17  0001              	db 0
  17  0001              @HCCINIT_hour .section 'data'
  17  0001              public _min
  17  0001              #line 17 "C:\Learn\Program_HT_IDE3000\Source\U3\BT_Ext_01.c"
  17  0000              @HCCINIT_min .section 'data'
  17  0000              _min label byte
  17  0000              #pragma debug variable 8 1 _min "min"
  17  0000              	db 0
  17  0002              @ROMDATA_BASE .section inpage 'code'
  17  0002              	db 0
  17  0001              @HCCINIT_min .section 'data'
  16  0001              #line 16 "C:\Learn\Program_HT_IDE3000\Source\U3\BT_Ext_01.c"
  16  0001              public _Digit
  16  0000              @HCCINIT0_Digit .section 'data'
  16  0000  0004[       _Digit	db 4 dup(0)
            00
            ]
  16  0004              #pragma debug array 43 8 4 1
  16  0004              #pragma debug array 43 8 4 1
  16  0004              #pragma debug variable 43 1 _Digit "Digit"
  16  0004              
  16  0000              @HCCINIT .section 'data'
  16  0000              #line 16 "C:\Learn\Program_HT_IDE3000\Source\U3\BT_Ext_01.c"
  16  0000              public _ScanCode
  16  0000              @HCCINIT0_ScanCode .section 'data'
  16  0000              _ScanCode	db 0
  16  0001              #pragma debug variable 8 1 _ScanCode "ScanCode"
  16  0001              
  16  0000              @HCCINIT .section 'data'
  16  0000              #line 16 "C:\Learn\Program_HT_IDE3000\Source\U3\BT_Ext_01.c"
  16  0000              public _R100ms
  16  0000              @HCCINIT0_R100ms .section 'data'
  16  0000              _R100ms	db 0
  16  0001              #pragma debug variable 8 1 _R100ms "R100ms"
  16  0001              
  16  0000              @HCCINIT .section 'data'
  16  0000              #line 16 "C:\Learn\Program_HT_IDE3000\Source\U3\BT_Ext_01.c"
  16  0000              public _ptr
  16  0000              @HCCINIT0_ptr .section 'data'
  16  0000  0002[       _ptr	db 2 dup(0)
            00
            ]
  16  0002              #pragma debug pointer 44 8 1
  16  0002              #pragma debug pointer 44 8 1
  16  0002              #pragma debug variable 44 1 _ptr "ptr"
  16  0002              
  16  0000              @HCCINIT .section 'data'
  16  0000              public _SEG_TAB
  16  0000              @crom	.section 'crom'
  13  0000              #line 13 "C:\Learn\Program_HT_IDE3000\Source\U3\BT_Ext_01.c"
  13  0000              @crom	.section	'crom'
  13  0000              _SEG_TAB:
  13  0000              #pragma debug array 45 8 10 1
  13  0000              #pragma debug array 45 8 10 1
  13  0000              #pragma debug variable 45 1 _SEG_TAB "SEG_TAB"
  13  0000              	db 63
  13  0001              	db 6
  13  0001              	db 91
  13  0002              	db 79
"File: BT_Ext_01.c   Assembler  Version HGASM0202      Page 16

  13  0002              	db 102
  13  0003              	db 109
  13  0003              	db 125
  13  0004              	db 7
  13  0004              	db 127
  13  0005              	db 103
  13  0005              #pragma debug struct_end
  13  0005              #pragma debug struct_end
  13  0005              #pragma debug union_end
  13  0005              #pragma debug union_end
  13  0005              #pragma debug variable 47 1 ___intc0 "__intc0" 1
  13  0005              #pragma debug struct_end
  13  0005              #pragma debug struct_end
  13  0005              #pragma debug union_end
  13  0005              #pragma debug union_end
  13  0005              #pragma debug variable 49 1 ___intc3 "__intc3" 1
  13  0005              #pragma debug struct_end
  13  0005              #pragma debug struct_end
  13  0005              #pragma debug union_end
  13  0005              #pragma debug union_end
  13  0005              #pragma debug variable 51 1 ___pa "__pa" 1
  13  0005              #pragma debug struct_end
  13  0005              #pragma debug struct_end
  13  0005              #pragma debug union_end
  13  0005              #pragma debug union_end
  13  0005              #pragma debug variable 53 1 ___pac "__pac" 1
  13  0005              #pragma debug struct_end
  13  0005              #pragma debug struct_end
  13  0005              #pragma debug union_end
  13  0005              #pragma debug union_end
  13  0005              #pragma debug variable 55 1 ___papu "__papu" 1
  13  0005              #pragma debug struct_end
  13  0005              #pragma debug struct_end
  13  0005              #pragma debug union_end
  13  0005              #pragma debug union_end
  13  0005              #pragma debug variable 57 1 ___pe "__pe" 1
  13  0005              #pragma debug struct_end
  13  0005              #pragma debug struct_end
  13  0005              #pragma debug union_end
  13  0005              #pragma debug union_end
  13  0005              #pragma debug variable 59 1 ___pec "__pec" 1
  13  0005              #pragma debug struct_end
  13  0005              #pragma debug struct_end
  13  0005              #pragma debug union_end
  13  0005              #pragma debug union_end
  13  0005              #pragma debug variable 61 1 ___pg "__pg" 1
  13  0005              #pragma debug struct_end
  13  0005              #pragma debug struct_end
  13  0005              #pragma debug union_end
  13  0005              #pragma debug union_end
  13  0005              #pragma debug variable 63 1 ___pgc "__pgc" 1
  13  0005              #pragma debug struct_end
  13  0005              #pragma debug struct_end
  13  0005              #pragma debug union_end
  13  0005              #pragma debug union_end
  13  0005              #pragma debug variable 65 1 ___mfi4 "__mfi4" 1
  13  0005              #pragma debug struct_end
  13  0005              #pragma debug struct_end
  13  0005              #pragma debug union_end
  13  0005              #pragma debug union_end
"File: BT_Ext_01.c   Assembler  Version HGASM0202      Page 17

  13  0005              #pragma debug variable 67 1 ___mfi5 "__mfi5" 1
  13  0005              #pragma debug struct_end
  13  0005              #pragma debug struct_end
  13  0005              #pragma debug union_end
  13  0005              #pragma debug union_end
  13  0005              #pragma debug variable 69 1 ___wdtc "__wdtc" 1
  13  0005              #pragma debug struct_end
  13  0005              #pragma debug struct_end
  13  0005              #pragma debug union_end
  13  0005              #pragma debug union_end
  13  0005              #pragma debug variable 71 1 ___ptm0c0 "__ptm0c0" 1
  13  0005              #pragma debug struct_end
  13  0005              #pragma debug struct_end
  13  0005              #pragma debug union_end
  13  0005              #pragma debug union_end
  13  0005              #pragma debug variable 73 1 ___ptm0c1 "__ptm0c1" 1
  13  0005              #pragma debug variable 8 1 ___ptm0al "__ptm0al" 1
  13  0005              #pragma debug variable 8 1 ___ptm0ah "__ptm0ah" 1
  13  0005              #pragma debug struct_end
  13  0005              #pragma debug struct_end
  13  0005              #pragma debug union_end
  13  0005              #pragma debug union_end
  13  0005              #pragma debug variable 75 1 ___sledc1 "__sledc1" 1
  13  0005              #pragma debug struct_end
  13  0005              #pragma debug struct_end
  13  0005              #pragma debug union_end
  13  0005              #pragma debug union_end
  13  0005              #pragma debug variable 77 1 ___u0sr "__u0sr" 1
  13  0005              #pragma debug struct_end
  13  0005              #pragma debug struct_end
  13  0005              #pragma debug union_end
  13  0005              #pragma debug union_end
  13  0005              #pragma debug variable 79 1 ___u0cr1 "__u0cr1" 1
  13  0005              #pragma debug struct_end
  13  0005              #pragma debug struct_end
  13  0005              #pragma debug union_end
  13  0005              #pragma debug union_end
  13  0005              #pragma debug variable 81 1 ___u0cr2 "__u0cr2" 1
  13  0005              #pragma debug variable 8 1 ___txr_rxr0 "__txr_rxr0" 1
  13  0005              #pragma debug variable 8 1 ___brg0 "__brg0" 1
  13  0005              #pragma debug struct_end
  13  0005              #pragma debug struct_end
  13  0005              #pragma debug union_end
  13  0005              #pragma debug union_end
  13  0005              #pragma debug variable 83 1 ___stm2c0 "__stm2c0" 1
  13  0005              #pragma debug struct_end
  13  0005              #pragma debug struct_end
  13  0005              #pragma debug union_end
  13  0005              #pragma debug union_end
  13  0005              #pragma debug variable 85 1 ___stm2c1 "__stm2c1" 1
  13  0005              #pragma debug variable 8 1 ___stm2al "__stm2al" 1
  13  0005              #pragma debug variable 8 1 ___stm2ah "__stm2ah" 1
  13  0005              #pragma debug struct_end
  13  0005              #pragma debug struct_end
  13  0005              #pragma debug union_end
  13  0005              #pragma debug union_end
  13  0005              #pragma debug variable 87 1 ___pas1 "__pas1" 1
  13  0005              #pragma debug struct_end
  13  0005              #pragma debug struct_end
  13  0005              #pragma debug union_end
"File: BT_Ext_01.c   Assembler  Version HGASM0202      Page 18

  13  0005              #pragma debug union_end
  13  0005              #pragma debug variable 89 1 ___pcs0 "__pcs0" 1
  13  0005              extern r1:byte
  13  0005              extern r2:byte
  13  0005              extern r3:byte
  13  0005              extern r4:byte
  13  0005              extern r5:byte
  13  0005              extern r6:byte
  13  0005              extern r7:byte
  22  0005              #line 22 "C:\Learn\Program_HT_IDE3000\Source\U3\BT_Ext_01.c"
  22  0000              @code .section at 0 'code'
  22  0000  1F0B        	clr bp
  22  0001  2800     R  	jmp _main_startup1
  22  0002              
  22  0002              extern _builtin_holtek_udivmodqi4_2:byte
  22  0002              extern _builtin_holtek_udivmodqi4:near
  22  0002              
  22  0002              ; 
  22  0002              ; Generated by holtek-gcc v3.19, Tue Apr 07 11:24:53 2020
  22  0002              ; Rebuild 718
  22  0002              ; end of file


        0 Errors, 0