"File: U1_6.c        Assembler  Version HGASM0202      Page 1


   1  0000              ; Generated by holtek-gcc v3.19, Tue Mar 24 10:26:22 2020
   2  0000              ; 
   3  0000              ; Configuration:
   4  0000              ;       with long instruction
   5  0000              ;       Multi-ROM, Multi-RAM
   6  0000              ;       bits_per_rom_unit:16
   7  0000              ;       with mp1
   8  0000              ;       with tbhp, address(0x9)
   9  0000              ;          Use tabrd-const
  10  0000              ;       
  11  0000              ; SFR address of long-instruction arch:
  12  0000              ;    mp0 = -1,1,0
  13  0000              ;    mp1 = 4,3,2
  14  0000              ;    mp2 = 14,13,12
  15  0000              ;    tbp = 9,7,8
  16  0000              ;    acc = 5
  17  0000              ;    pcl = 6
  18  0000              ;    status = 10
  19  0000              ;    bp = 11
  20  0000              ;    intc = 16
  21  0000              ;       
  22  0000              ;       
  23  0000              ; use 'tabrdc' instead of 'tabrd'
  24  0000              ;       
  25  0000              
  26  0000              #pragma translator "holtek-gcc 4.6.4" "3.19" "build 20130711"
  27  0000              ; Rebuild 718
  28  0000              
  29  0000              ir equ [2]
  30  0000              mp equ [3]
  31  0000              sbp equ [4]
  32  0000              acc equ [5]
  33  0000              bp equ [11]
  34  0000              tblp equ [7]
  35  0000              tbhp equ [9]
  36  0000              status equ [10]
  37  0000              c equ [10].0
  38  0000              ac equ [10].1
  39  0000              z equ [10].2
  40  0000              ov equ [10].3
  41  0000              cz equ [10].6
  42  0000              sc equ [10].7
  43  0000              intc equ [16]
  44  0000              mduwr0 equ [59h]
  45  0000              mduwr1 equ [5ah]
  46  0000              mduwr2 equ [5bh]
  47  0000              mduwr3 equ [5ch]
  48  0000              mduwr4 equ [5dh]
  49  0000              mduwr5 equ [5eh]
  50  0000              mduwrctrl equ [5fh]
  51  0000              
  52  0000              extern ra:byte
  53  0000              extern rb:byte
  54  0000              extern rc:byte
  55  0000              extern rd:byte
  56  0000              extern re:byte
  57  0000              extern rf:byte
  58  0000              extern rg:byte
  59  0000              extern rh:byte
"File: U1_6.ASM      Assembler  Version HGASM0202      Page 2

  60  0000              extern _Crom2Prom:near
  61  0000              extern _Crom2PromNext:near
  62  0000              
  63  0000              RAMBANK 0 @BITDATASEC, @BITDATASEC1
  64  0000              @HCCINIT	.section 'data'
  65  0000              @HCCINIT0	.section 'data'
  66  0000              @BITDATASEC	 .section 'data'
  67  0000              @BITDATASEC1	 .section 'data'
  68  0000              
  69  0000              #pragma debug scope 1 1
  70  0000              	extern __DELAY3:near
  71  0000              	extern __DELAYX3:near
  72  0000              	extern __DELAYX6:near
  73  0000              	extern __DELAYY5:near
  74  0000              	extern __DELAYY3:near
  75  0000              	extern _builtin_holtek_delay_2:byte
  76  0000              ___pcc equ [28]
  77  0000              ___pcpu equ [29]
  78  0000              ___pc equ [27]
  79  0000              public _ScanKey
  80  0000              #pragma debug scope 2 1

  30  0000              #line 30 "C:\Learn\Program_HT_IDE3000\U1\U1_6.c"
  30  0000              _ScanKey .section 'code'
  30  0000              _ScanKey proc
  31  0000              #line 31 "C:\Learn\Program_HT_IDE3000\U1\U1_6.c"
  31  0000  0FF0        	mov a,240
  31  0001  009C        	mov [28],a
  31  0002  0FF0        	mov a,240
  31  0003  009D        	mov [29],a
  32  0004              #line 32 "C:\Learn\Program_HT_IDE3000\U1\U1_6.c"
  32  0004  0FFE        	mov a,254
  32  0005  009B        	mov [27],a
  30  0006              #line 30 "C:\Learn\Program_HT_IDE3000\U1\U1_6.c"
  30  0006  1F00     E  	clr ra
  30  0007              _L6:
  34  0007              #line 34 "C:\Learn\Program_HT_IDE3000\U1\U1_6.c"
  34  0007  3B9B        	snz [27].7
  34  0008  2800     R  	jmp _L2
  36  0009              #line 36 "C:\Learn\Program_HT_IDE3000\U1\U1_6.c"
  36  0009  3F1B        	sz [27].6
  36  000A  2800     R  	jmp _L3
  35  000B              #line 35 "C:\Learn\Program_HT_IDE3000\U1\U1_6.c"
  35  000B  1480     E  	inc ra
  35  000C  2800     R  	jmp _L2
  35  000D              _L3:
  38  000D              #line 38 "C:\Learn\Program_HT_IDE3000\U1\U1_6.c"
  38  000D  3E9B        	sz [27].5
  38  000E  2800     R  	jmp _L4
  37  000F              #line 37 "C:\Learn\Program_HT_IDE3000\U1\U1_6.c"
  37  000F  0F02        	mov a,2
  37  0010  0380     E  	addm a,ra
  37  0011  2800     R  	jmp _L2
  37  0012              _L4:
  40  0012              #line 40 "C:\Learn\Program_HT_IDE3000\U1\U1_6.c"
  40  0012  3E1B        	sz [27].4
  40  0013  2800     R  	jmp _L5
  39  0014              #line 39 "C:\Learn\Program_HT_IDE3000\U1\U1_6.c"
  39  0014  0F03        	mov a,3
  39  0015  0380     E  	addm a,ra
"File: U1_6.c        Assembler  Version HGASM0202      Page 3

  39  0016  2800     R  	jmp _L2
  39  0017              _L5:
  41  0017              #line 41 "C:\Learn\Program_HT_IDE3000\U1\U1_6.c"
  41  0017  0F04        	mov a,4
  41  0018  0380     E  	addm a,ra
  42  0019              #line 42 "C:\Learn\Program_HT_IDE3000\U1\U1_6.c"
  42  0019  071B        	mov a,[27]
  42  001A  039B        	addm a,[27]
  42  001B  301B        	set [27].0
  33  001C              #line 33 "C:\Learn\Program_HT_IDE3000\U1\U1_6.c"
  33  001C  0700     E  	mov a,ra
  33  001D  0A10        	sub a,16
  33  001E  390A        	snz z
  33  001F  2800     R  	jmp _L6
  33  0020              _L2:
  45  0020              #line 45 "C:\Learn\Program_HT_IDE3000\U1\U1_6.c"
  45  0020  0700     E  	mov a,ra
  45  0021  0003        	ret
  45  0022              _ScanKey endp
  45  0022              #line 45 "C:\Learn\Program_HT_IDE3000\U1\U1_6.c"
  45  0022              #pragma debug scope 1 1
  45  0022              ___wdtc equ [62]
  45  0022              ___pg equ [39]
  45  0022              ___pgc equ [40]
  45  0022              public _main
  45  0022              #pragma debug scope 3 1
  15  0022              #line 15 "C:\Learn\Program_HT_IDE3000\U1\U1_6.c"
  15  0022              IFDEF WITH_DEFAULT_STARTUP
  15  0022              extern _main_initial0:near
  15  0022              extern _main_startup:near
  15  0022              ENDIF
  15  0022              
  15  0022              ROMBANK 0 @start
  15  0000              @start .section com_l 'code'
  15  0000              _main_startup1:
  15  0000              @start .section com_e 'code'
  15  0000  0F00     R  	mov a,bank _main
  15  0001  008B        	mov bp,a
  15  0002  2800     R  	jmp _main
  15  0003              
  15  0000              _main .section 'code'
  15  0000              _main proc
  16  0000              #line 16 "C:\Learn\Program_HT_IDE3000\U1\U1_6.c"
  16  0000  0FAF        	mov a,175
  16  0001  00BE        	mov [62],a
  17  0002              #line 17 "C:\Learn\Program_HT_IDE3000\U1\U1_6.c"
  17  0002  1F27        	clr [39]
  17  0003  1F28        	clr [40]
  17  0004              _L15:
  19  0004              #line 19 "C:\Learn\Program_HT_IDE3000\U1\U1_6.c"
  19  0004  0F80        	mov a,128
  19  0005  00A7        	mov [39],a
  19  0006              _L13:
  21  0006              #line 21 "C:\Learn\Program_HT_IDE3000\U1\U1_6.c"
  21  0006              	fcall _ScanKey
  21  000D  0080     E  	mov ra,a
  22  000E              #line 22 "C:\Learn\Program_HT_IDE3000\U1\U1_6.c"
  22  000E              ;# 22 "C:\Learn\Program_HT_IDE3000\U1\U1_6.c" 1
  22  000E              	IF 200000>263690
  22  000E              ;# 22 "C:\Learn\Program_HT_IDE3000\U1\U1_6.c" 1
"File: U1_6.c        Assembler  Version HGASM0202      Page 4

  22  000E              	ERRMESSAGE 'the value 200000of the argument exceeds the maxinum 263690'
  22  000E              	ENDIF
  22  000E              ;# 22 "C:\Learn\Program_HT_IDE3000\U1\U1_6.c" 1
  22  000E              	IF 200000<0
  22  000E              ;# 22 "C:\Learn\Program_HT_IDE3000\U1\U1_6.c" 1
  22  000E              	ERRMESSAGE 'the value 200000 of the argument exceeds the mininum 0'
  22  000E              	ENDIF
  22  000E              ;# 22 "C:\Learn\Program_HT_IDE3000\U1\U1_6.c" 1
  22  000E              	IF 200000==0
  22  000E              ;# 22 "C:\Learn\Program_HT_IDE3000\U1\U1_6.c" 1
  22  000E              	JMP $
  22  000E              	ENDIF
  22  000E              ;# 22 "C:\Learn\Program_HT_IDE3000\U1\U1_6.c" 1
  22  000E              	IF (200000>=1) AND (200000<( 4 + __PBP__ * 2))
  22  000E              ;# 22 "C:\Learn\Program_HT_IDE3000\U1\U1_6.c" 1
  22  000E              	NOP
  22  000E              	ENDIF
  22  000E              ;# 22 "C:\Learn\Program_HT_IDE3000\U1\U1_6.c" 1
  22  000E              	IF (200000>=2) AND (200000<( 4 + __PBP__ * 2))
  22  000E              ;# 22 "C:\Learn\Program_HT_IDE3000\U1\U1_6.c" 1
  22  000E              	NOP
  22  000E              	ENDIF
  22  000E              ;# 22 "C:\Learn\Program_HT_IDE3000\U1\U1_6.c" 1
  22  000E              	IF (200000>=3) AND (200000<( 4 + __PBP__ * 2))
  22  000E              ;# 22 "C:\Learn\Program_HT_IDE3000\U1\U1_6.c" 1
  22  000E              	NOP
  22  000E              	ENDIF
  22  000E              ;# 22 "C:\Learn\Program_HT_IDE3000\U1\U1_6.c" 1
  22  000E              	IF (200000>=4) AND (200000<( 4 + __PBP__ * 2)) AND ( __PBP__ > 0 )
  22  000E              ;# 22 "C:\Learn\Program_HT_IDE3000\U1\U1_6.c" 1
  22  000E              	NOP
  22  000E              	ENDIF
  22  000E              ;# 22 "C:\Learn\Program_HT_IDE3000\U1\U1_6.c" 1
  22  000E              	IF (200000>=5) AND (200000<( 4 + __PBP__ * 2)) AND ( __PBP__ > 0 )
  22  000E              ;# 22 "C:\Learn\Program_HT_IDE3000\U1\U1_6.c" 1
  22  000E              	NOP
  22  000E              	ENDIF
  22  000E              ;# 22 "C:\Learn\Program_HT_IDE3000\U1\U1_6.c" 1
  22  000E              	IF (200000>=6) AND (200000<( 4 + __PBP__ * 2))  AND ( __PBP__ > 1 )
  22  000E              ;# 22 "C:\Learn\Program_HT_IDE3000\U1\U1_6.c" 1
  22  000E              	NOP
  22  000E              	ENDIF
  22  000E              ;# 22 "C:\Learn\Program_HT_IDE3000\U1\U1_6.c" 1
  22  000E              	IF (200000>=7) AND (200000<( 4 + __PBP__ * 2))  AND ( __PBP__ > 1 )
  22  000E              ;# 22 "C:\Learn\Program_HT_IDE3000\U1\U1_6.c" 1
  22  000E              	NOP
  22  000E              	ENDIF
  22  000E              ;# 22 "C:\Learn\Program_HT_IDE3000\U1\U1_6.c" 1
  22  000E              	IF (200000>=8) AND (200000<( 4 + __PBP__ * 2))  AND ( __PBP__ > 2 )
  22  000E              ;# 22 "C:\Learn\Program_HT_IDE3000\U1\U1_6.c" 1
  22  000E              	NOP
  22  000E              	ENDIF
  22  000E              ;# 22 "C:\Learn\Program_HT_IDE3000\U1\U1_6.c" 1
  22  000E              	IF (200000==9)  AND ( __PBP__ > 2 )
  22  000E              ;# 22 "C:\Learn\Program_HT_IDE3000\U1\U1_6.c" 1
  22  000E              	NOP
  22  000E              	ENDIF
  22  000E              ;# 22 "C:\Learn\Program_HT_IDE3000\U1\U1_6.c" 1
  22  000E              	IF (200000< ( 8 + __PBP__ * 2)) AND (200000>( 3 + __PBP__ * 2))
  22  000E              ;# 22 "C:\Learn\Program_HT_IDE3000\U1\U1_6.c" 1
"File: U1_6.c        Assembler  Version HGASM0202      Page 5

  22  000E              	fcall __DELAY3 + ( 7 + __PBP__ * 2) -200000
  22  000E              	ENDIF
  22  000E              ;# 22 "C:\Learn\Program_HT_IDE3000\U1\U1_6.c" 1
  22  000E              	IF (200000< ( 0404h + __PBP__ * 2)) AND (200000>( 7 + __PBP__ * 2))
  22  000E              ;# 22 "C:\Learn\Program_HT_IDE3000\U1\U1_6.c" 1
  22  000E              	MOV A,(200000-( 4 + __PBP__ * 2))/4
  22  000E              ;# 22 "C:\Learn\Program_HT_IDE3000\U1\U1_6.c" 1
  22  000E              	fcall __DELAYX3 + 3 -((200000-( 4 + __PBP__ * 2)) MOD 4) 
  22  000E              	ENDIF
  22  000E              ;# 22 "C:\Learn\Program_HT_IDE3000\U1\U1_6.c" 1
  22  000E              	IF (200000< ( 040bh + __PBP__ * 2)) AND (200000> ( 0403h + __PBP__ * 2))
  22  000E              ;# 22 "C:\Learn\Program_HT_IDE3000\U1\U1_6.c" 1
  22  000E              	MOV A,0 
  22  000E              ;# 22 "C:\Learn\Program_HT_IDE3000\U1\U1_6.c" 1
  22  000E              	fcall __DELAYX6 + ( 040ah + __PBP__ * 2) -200000
  22  000E              	ENDIF
  22  000E              ;# 22 "C:\Learn\Program_HT_IDE3000\U1\U1_6.c" 1
  22  000E              	IF (200000 >= ( 040bh + __PBP__ * 2)) AND ((((200000-( 9 + __PBP__ * 2))%0402h)/4+1)>256)
  22  000E              ;# 22 "C:\Learn\Program_HT_IDE3000\U1\U1_6.c" 1
  22  000E              	MOV A,(200000-( 9 + __PBP__ * 2))/0402h
  22  000E              ;# 22 "C:\Learn\Program_HT_IDE3000\U1\U1_6.c" 1
  22  000E              	MOV _builtin_holtek_delay_2,A
  22  000E              ;# 22 "C:\Learn\Program_HT_IDE3000\U1\U1_6.c" 1
  22  000E              	MOV A,0
  22  000E              ;# 22 "C:\Learn\Program_HT_IDE3000\U1\U1_6.c" 1
  22  000E              	fcall __DELAYY5 +5- (((200000-( 9 + __PBP__ * 2))%0402h)%6) 
  22  000E              	ENDIF
  22  000E              ;# 22 "C:\Learn\Program_HT_IDE3000\U1\U1_6.c" 1
  22  000E              	IF (200000 >= ( 040bh + __PBP__ * 2)) AND ((((200000-( 9 + __PBP__ * 2))%0402h)/4+1)<=256)
  22  000E              ;# 22 "C:\Learn\Program_HT_IDE3000\U1\U1_6.c" 1
  22  000E  0FC2        	MOV A,(200000-( 9 + __PBP__ * 2))/0402h
  22  000F              ;# 22 "C:\Learn\Program_HT_IDE3000\U1\U1_6.c" 1
  22  000F  0080     E  	MOV _builtin_holtek_delay_2,A
  22  0010              ;# 22 "C:\Learn\Program_HT_IDE3000\U1\U1_6.c" 1
  22  0010  0FEC        	MOV A,((200000-( 9 + __PBP__ * 2))%0402h)/4+1
  22  0011              ;# 22 "C:\Learn\Program_HT_IDE3000\U1\U1_6.c" 1
  22  0011              	fcall __DELAYY3 +3-(((200000-( 9 + __PBP__ * 2))%0402h)%4) 
  22  0018              	ENDIF
  23  0018              #line 23 "C:\Learn\Program_HT_IDE3000\U1\U1_6.c"
  23  0018  0F80        	mov a,128
  23  0019  03A7        	addm a,[39]
  24  001A              #line 24 "C:\Learn\Program_HT_IDE3000\U1\U1_6.c"
  24  001A  0700     E  	mov a,ra
  24  001B  0A10        	sub a,16
  24  001C  3D0A        	sz z
  24  001D  2800     R  	jmp _L13
  25  001E              #line 25 "C:\Learn\Program_HT_IDE3000\U1\U1_6.c"
  25  001E  0F00     R  	mov a,low offset _SEG_TAB
  25  001F  0300     E  	add a,ra
  25  0020  0083        	mov mp,a
  25  0021  0F00     R  	mov a,high offset _SEG_TAB
  25  0022  1F04        	clr sbp
  25  0023  1384        	adcm a,sbp
  25  0024              	fcall _Crom2Prom
  25  002B  00A7        	mov [39],a
  25  002C  0F0A        	mov a,10
  25  002D  0080     E  	mov ra,a
  25  002E              _L16:
  26  002E              #line 26 "C:\Learn\Program_HT_IDE3000\U1\U1_6.c"
  26  002E              ;# 26 "C:\Learn\Program_HT_IDE3000\U1\U1_6.c" 1
"File: U1_6.c        Assembler  Version HGASM0202      Page 6

  26  002E              	IF 200000>263690
  26  002E              ;# 26 "C:\Learn\Program_HT_IDE3000\U1\U1_6.c" 1
  26  002E              	ERRMESSAGE 'the value 200000of the argument exceeds the maxinum 263690'
  26  002E              	ENDIF
  26  002E              ;# 26 "C:\Learn\Program_HT_IDE3000\U1\U1_6.c" 1
  26  002E              	IF 200000<0
  26  002E              ;# 26 "C:\Learn\Program_HT_IDE3000\U1\U1_6.c" 1
  26  002E              	ERRMESSAGE 'the value 200000 of the argument exceeds the mininum 0'
  26  002E              	ENDIF
  26  002E              ;# 26 "C:\Learn\Program_HT_IDE3000\U1\U1_6.c" 1
  26  002E              	IF 200000==0
  26  002E              ;# 26 "C:\Learn\Program_HT_IDE3000\U1\U1_6.c" 1
  26  002E              	JMP $
  26  002E              	ENDIF
  26  002E              ;# 26 "C:\Learn\Program_HT_IDE3000\U1\U1_6.c" 1
  26  002E              	IF (200000>=1) AND (200000<( 4 + __PBP__ * 2))
  26  002E              ;# 26 "C:\Learn\Program_HT_IDE3000\U1\U1_6.c" 1
  26  002E              	NOP
  26  002E              	ENDIF
  26  002E              ;# 26 "C:\Learn\Program_HT_IDE3000\U1\U1_6.c" 1
  26  002E              	IF (200000>=2) AND (200000<( 4 + __PBP__ * 2))
  26  002E              ;# 26 "C:\Learn\Program_HT_IDE3000\U1\U1_6.c" 1
  26  002E              	NOP
  26  002E              	ENDIF
  26  002E              ;# 26 "C:\Learn\Program_HT_IDE3000\U1\U1_6.c" 1
  26  002E              	IF (200000>=3) AND (200000<( 4 + __PBP__ * 2))
  26  002E              ;# 26 "C:\Learn\Program_HT_IDE3000\U1\U1_6.c" 1
  26  002E              	NOP
  26  002E              	ENDIF
  26  002E              ;# 26 "C:\Learn\Program_HT_IDE3000\U1\U1_6.c" 1
  26  002E              	IF (200000>=4) AND (200000<( 4 + __PBP__ * 2)) AND ( __PBP__ > 0 )
  26  002E              ;# 26 "C:\Learn\Program_HT_IDE3000\U1\U1_6.c" 1
  26  002E              	NOP
  26  002E              	ENDIF
  26  002E              ;# 26 "C:\Learn\Program_HT_IDE3000\U1\U1_6.c" 1
  26  002E              	IF (200000>=5) AND (200000<( 4 + __PBP__ * 2)) AND ( __PBP__ > 0 )
  26  002E              ;# 26 "C:\Learn\Program_HT_IDE3000\U1\U1_6.c" 1
  26  002E              	NOP
  26  002E              	ENDIF
  26  002E              ;# 26 "C:\Learn\Program_HT_IDE3000\U1\U1_6.c" 1
  26  002E              	IF (200000>=6) AND (200000<( 4 + __PBP__ * 2))  AND ( __PBP__ > 1 )
  26  002E              ;# 26 "C:\Learn\Program_HT_IDE3000\U1\U1_6.c" 1
  26  002E              	NOP
  26  002E              	ENDIF
  26  002E              ;# 26 "C:\Learn\Program_HT_IDE3000\U1\U1_6.c" 1
  26  002E              	IF (200000>=7) AND (200000<( 4 + __PBP__ * 2))  AND ( __PBP__ > 1 )
  26  002E              ;# 26 "C:\Learn\Program_HT_IDE3000\U1\U1_6.c" 1
  26  002E              	NOP
  26  002E              	ENDIF
  26  002E              ;# 26 "C:\Learn\Program_HT_IDE3000\U1\U1_6.c" 1
  26  002E              	IF (200000>=8) AND (200000<( 4 + __PBP__ * 2))  AND ( __PBP__ > 2 )
  26  002E              ;# 26 "C:\Learn\Program_HT_IDE3000\U1\U1_6.c" 1
  26  002E              	NOP
  26  002E              	ENDIF
  26  002E              ;# 26 "C:\Learn\Program_HT_IDE3000\U1\U1_6.c" 1
  26  002E              	IF (200000==9)  AND ( __PBP__ > 2 )
  26  002E              ;# 26 "C:\Learn\Program_HT_IDE3000\U1\U1_6.c" 1
  26  002E              	NOP
  26  002E              	ENDIF
  26  002E              ;# 26 "C:\Learn\Program_HT_IDE3000\U1\U1_6.c" 1
"File: U1_6.c        Assembler  Version HGASM0202      Page 7

  26  002E              	IF (200000< ( 8 + __PBP__ * 2)) AND (200000>( 3 + __PBP__ * 2))
  26  002E              ;# 26 "C:\Learn\Program_HT_IDE3000\U1\U1_6.c" 1
  26  002E              	fcall __DELAY3 + ( 7 + __PBP__ * 2) -200000
  26  002E              	ENDIF
  26  002E              ;# 26 "C:\Learn\Program_HT_IDE3000\U1\U1_6.c" 1
  26  002E              	IF (200000< ( 0404h + __PBP__ * 2)) AND (200000>( 7 + __PBP__ * 2))
  26  002E              ;# 26 "C:\Learn\Program_HT_IDE3000\U1\U1_6.c" 1
  26  002E              	MOV A,(200000-( 4 + __PBP__ * 2))/4
  26  002E              ;# 26 "C:\Learn\Program_HT_IDE3000\U1\U1_6.c" 1
  26  002E              	fcall __DELAYX3 + 3 -((200000-( 4 + __PBP__ * 2)) MOD 4) 
  26  002E              	ENDIF
  26  002E              ;# 26 "C:\Learn\Program_HT_IDE3000\U1\U1_6.c" 1
  26  002E              	IF (200000< ( 040bh + __PBP__ * 2)) AND (200000> ( 0403h + __PBP__ * 2))
  26  002E              ;# 26 "C:\Learn\Program_HT_IDE3000\U1\U1_6.c" 1
  26  002E              	MOV A,0 
  26  002E              ;# 26 "C:\Learn\Program_HT_IDE3000\U1\U1_6.c" 1
  26  002E              	fcall __DELAYX6 + ( 040ah + __PBP__ * 2) -200000
  26  002E              	ENDIF
  26  002E              ;# 26 "C:\Learn\Program_HT_IDE3000\U1\U1_6.c" 1
  26  002E              	IF (200000 >= ( 040bh + __PBP__ * 2)) AND ((((200000-( 9 + __PBP__ * 2))%0402h)/4+1)>256)
  26  002E              ;# 26 "C:\Learn\Program_HT_IDE3000\U1\U1_6.c" 1
  26  002E              	MOV A,(200000-( 9 + __PBP__ * 2))/0402h
  26  002E              ;# 26 "C:\Learn\Program_HT_IDE3000\U1\U1_6.c" 1
  26  002E              	MOV _builtin_holtek_delay_2,A
  26  002E              ;# 26 "C:\Learn\Program_HT_IDE3000\U1\U1_6.c" 1
  26  002E              	MOV A,0
  26  002E              ;# 26 "C:\Learn\Program_HT_IDE3000\U1\U1_6.c" 1
  26  002E              	fcall __DELAYY5 +5- (((200000-( 9 + __PBP__ * 2))%0402h)%6) 
  26  002E              	ENDIF
  26  002E              ;# 26 "C:\Learn\Program_HT_IDE3000\U1\U1_6.c" 1
  26  002E              	IF (200000 >= ( 040bh + __PBP__ * 2)) AND ((((200000-( 9 + __PBP__ * 2))%0402h)/4+1)<=256)
  26  002E              ;# 26 "C:\Learn\Program_HT_IDE3000\U1\U1_6.c" 1
  26  002E  0FC2        	MOV A,(200000-( 9 + __PBP__ * 2))/0402h
  26  002F              ;# 26 "C:\Learn\Program_HT_IDE3000\U1\U1_6.c" 1
  26  002F  0080     E  	MOV _builtin_holtek_delay_2,A
  26  0030              ;# 26 "C:\Learn\Program_HT_IDE3000\U1\U1_6.c" 1
  26  0030  0FEC        	MOV A,((200000-( 9 + __PBP__ * 2))%0402h)/4+1
  26  0031              ;# 26 "C:\Learn\Program_HT_IDE3000\U1\U1_6.c" 1
  26  0031              	fcall __DELAYY3 +3-(((200000-( 9 + __PBP__ * 2))%0402h)%4) 
  26  0038              	ENDIF
  26  0038  1780     E  	sdz ra
  26  0039  2800     R  	jmp _L16
  26  003A  2800     R  	jmp _L15
  26  003B  2800     R  	jmp $
  26  003C              _main endp
  26  003C              
  26  003C              @dummy endp
  26  003C              
  26  003C              #line 26 "C:\Learn\Program_HT_IDE3000\U1\U1_6.c"
  26  003C              #pragma debug scope 1 1
  26  003C              public _SEG_TAB
  26  0000              @crom	.section 'crom'
  10  0000              #line 10 "C:\Learn\Program_HT_IDE3000\U1\U1_6.c"
  10  0000              @crom	.section	'crom'
  10  0000              _SEG_TAB:
  10  0000              #pragma debug array 42 8 16 1
  10  0000              #pragma debug array 42 8 16 1
  10  0000              #pragma debug variable 42 1 _SEG_TAB "SEG_TAB"
  10  0000              	db 63
  10  0001              	db 6
"File: U1_6.c        Assembler  Version HGASM0202      Page 8

  10  0001              	db 91
  10  0002              	db 79
  10  0002              	db 102
  10  0003              	db 109
  10  0003              	db 125
  10  0004              	db 7
  10  0004              	db 127
  10  0005              	db 103
  10  0005              	db 119
  10  0006              	db 124
  10  0006              	db 88
  10  0007              	db 94
  10  0007              	db 121
  10  0008              	db 113
  10  0008              #pragma debug struct_end
  10  0008              #pragma debug struct_end
  10  0008              #pragma debug union_end
  10  0008              #pragma debug union_end
  10  0008              #pragma debug variable 44 1 ___pc "__pc" 1
  10  0008              #pragma debug struct_end
  10  0008              #pragma debug struct_end
  10  0008              #pragma debug union_end
  10  0008              #pragma debug union_end
  10  0008              #pragma debug variable 46 1 ___pcc "__pcc" 1
  10  0008              #pragma debug struct_end
  10  0008              #pragma debug struct_end
  10  0008              #pragma debug union_end
  10  0008              #pragma debug union_end
  10  0008              #pragma debug variable 48 1 ___pcpu "__pcpu" 1
  10  0008              #pragma debug struct_end
  10  0008              #pragma debug struct_end
  10  0008              #pragma debug union_end
  10  0008              #pragma debug union_end
  10  0008              #pragma debug variable 50 1 ___pg "__pg" 1
  10  0008              #pragma debug struct_end
  10  0008              #pragma debug struct_end
  10  0008              #pragma debug union_end
  10  0008              #pragma debug union_end
  10  0008              #pragma debug variable 52 1 ___pgc "__pgc" 1
  10  0008              #pragma debug struct_end
  10  0008              #pragma debug struct_end
  10  0008              #pragma debug union_end
  10  0008              #pragma debug union_end
  10  0008              #pragma debug variable 54 1 ___wdtc "__wdtc" 1
  15  0008              #line 15 "C:\Learn\Program_HT_IDE3000\U1\U1_6.c"
  15  0000              @code .section at 0 'code'
  15  0000  1F0B        	clr bp
  15  0001  2800     R  	jmp _main_startup1
  15  0002              
  15  0002              
  15  0002              ; 
  15  0002              ; Generated by holtek-gcc v3.19, Tue Mar 24 10:26:22 2020
  15  0002              ; Rebuild 718
  15  0002              ; end of file


        0 Errors, 0