"File: U3_3_1.c      Assembler  Version HGASM0202      Page 1


   1  0000              ; Generated by holtek-gcc v3.19, Tue Apr 07 14:46:41 2020
   2  0000              ; 
   3  0000              ; Configuration:
   4  0000              ;       with long instruction
   5  0000              ;       Multi-ROM, Multi-RAM
   6  0000              ;       bits_per_rom_unit:16
   7  0000              ;       with mp1
   8  0000              ;       with tbhp, address(0x9)
   9  0000              ;          Use tabrd-const
  10  0000              ;       
  11  0000              ; SFR address of long-instruction arch:
  12  0000              ;    mp0 = -1,1,0
  13  0000              ;    mp1 = 4,3,2
  14  0000              ;    mp2 = 14,13,12
  15  0000              ;    tbp = 9,7,8
  16  0000              ;    acc = 5
  17  0000              ;    pcl = 6
  18  0000              ;    status = 10
  19  0000              ;    bp = 11
  20  0000              ;    intc = 16
  21  0000              ;       
  22  0000              ;       
  23  0000              ; use 'tabrdc' instead of 'tabrd'
  24  0000              ;       
  25  0000              
  26  0000              #pragma translator "holtek-gcc 4.6.4" "3.19" "build 20130711"
  27  0000              ; Rebuild 718
  28  0000              
  29  0000              ir equ [2]
  30  0000              mp equ [3]
  31  0000              sbp equ [4]
  32  0000              acc equ [5]
  33  0000              bp equ [11]
  34  0000              tblp equ [7]
  35  0000              tbhp equ [9]
  36  0000              status equ [10]
  37  0000              c equ [10].0
  38  0000              ac equ [10].1
  39  0000              z equ [10].2
  40  0000              ov equ [10].3
  41  0000              cz equ [10].6
  42  0000              sc equ [10].7
  43  0000              intc equ [16]
  44  0000              mduwr0 equ [59h]
  45  0000              mduwr1 equ [5ah]
  46  0000              mduwr2 equ [5bh]
  47  0000              mduwr3 equ [5ch]
  48  0000              mduwr4 equ [5dh]
  49  0000              mduwr5 equ [5eh]
  50  0000              mduwrctrl equ [5fh]
  51  0000              
  52  0000              extern ra:byte
  53  0000              extern rb:byte
  54  0000              extern rc:byte
  55  0000              extern rd:byte
  56  0000              extern re:byte
  57  0000              extern rf:byte
  58  0000              extern rg:byte
  59  0000              extern rh:byte
"File: U3_3_1.ASM    Assembler  Version HGASM0202      Page 2

  60  0000              extern _Crom2Prom:near
  61  0000              extern _Crom2PromNext:near
  62  0000              
  63  0000              RAMBANK 0 @BITDATASEC, @BITDATASEC1
  64  0000              @HCCINIT	.section 'data'
  65  0000              @HCCINIT0	.section 'data'
  66  0000              @BITDATASEC	 .section 'data'
  67  0000              @BITDATASEC1	 .section 'data'
  68  0000              
  69  0000              #pragma debug scope 1 1
  70  0000              	extern __DELAY3:near
  71  0000              	extern __DELAYX3:near
  72  0000              	extern __DELAYX6:near
  73  0000              	extern __DELAYY5:near
  74  0000              	extern __DELAYY3:near
  75  0000              	extern _builtin_holtek_delay_2:byte
  76  0000              ___wdtc equ [62]
  77  0000              ___pg equ [39]
  78  0000              ___pgc equ [40]
  79  0000              ___pe equ [33]
  80  0000              ___pec equ [34]
  81  0000              ___psc0r equ [99]
  82  0000              ___tb0c equ [100]
  83  0000              ___intc2 equ [18]
  84  0000              ___sadc0 equ [105]
  85  0000              ___sadc1 equ [106]
  86  0000              ___sadc2 equ [107]
  87  0000              ___pds0 equ [339]
  88  0000              ___intc0 equ [16]
  89  0000              ___sadoh equ [104]
  90  0000              ___sadol equ [103]
  91  0000              public _main
  92  0000              #pragma debug scope 2 1

  14  0000              #line 14 "C:\Learn\Program_HT_IDE3000\Source\U3_3_1.c"
  14  0000              IFDEF WITH_DEFAULT_STARTUP
  14  0000              extern _main_initial0:near
  14  0000              extern _main_startup:near
  14  0000              ENDIF
  14  0000              
  14  0000              ROMBANK 0 @start
  14  0000              @start .section com_l 'code'
  14  0000              _main_startup1:
  14  0000              @start .section com_e 'code'
  14  0000  0F00     R  	mov a,bank _main
  14  0001  008B        	mov bp,a
  14  0002  2800     R  	jmp _main
  14  0003              
  14  0000              _main .section 'code'
  14  0000              _main proc
  14  0000  0002[           local _main_2 db 2 dup(?)
            00
            ]
  15  0002              #line 15 "C:\Learn\Program_HT_IDE3000\Source\U3_3_1.c"
  15  0000  0FAF        	mov a,175
  15  0001  00BE        	mov [62],a
  16  0002              #line 16 "C:\Learn\Program_HT_IDE3000\Source\U3_3_1.c"
  16  0002  1F27        	clr [39]
  16  0003  1F28        	clr [40]
  17  0004              #line 17 "C:\Learn\Program_HT_IDE3000\Source\U3_3_1.c"
"File: U3_3_1.c      Assembler  Version HGASM0202      Page 3

  17  0004  0FF0        	mov a,240
  17  0005  06A1        	andm a,[33]
  17  0006  0FF0        	mov a,240
  17  0007  06A2        	andm a,[34]
  18  0008              #line 18 "C:\Learn\Program_HT_IDE3000\Source\U3_3_1.c"
  18  0008  0F01        	mov a,1
  18  0009  00E3        	mov [99],a
  18  000A  0F85        	mov a,133
  18  000B  00E4        	mov [100],a
  18  000C  3092        	set [18].1
  19  000D              #line 19 "C:\Learn\Program_HT_IDE3000\Source\U3_3_1.c"
  19  000D  0F38        	mov a,56
  19  000E  00E9        	mov [105],a
  20  000F              #line 20 "C:\Learn\Program_HT_IDE3000\Source\U3_3_1.c"
  20  000F  0F07        	mov a,7
  20  0010  00EA        	mov [106],a
  21  0011              #line 21 "C:\Learn\Program_HT_IDE3000\Source\U3_3_1.c"
  21  0011  1F6B        	clr [107]
  22  0012              #line 22 "C:\Learn\Program_HT_IDE3000\Source\U3_3_1.c"
  22  0012  0F03        	mov a,3
  22  0013  80D3 0001   	lmov [339],a
  23  0015              #line 23 "C:\Learn\Program_HT_IDE3000\Source\U3_3_1.c"
  23  0015  0F00     R  	mov a,low offset _Buffer
  23  0016  0080     R  	mov _ptr[0],a
  23  0017  0F00     R  	mov a,high offset _Buffer
  23  0018  0080     R  	mov _ptr[1],a
  23  0019  0F01        	mov a,1
  23  001A  0080     R  	mov _ScanCode[0],a
  24  001B              #line 24 "C:\Learn\Program_HT_IDE3000\Source\U3_3_1.c"
  24  001B  1F00     R  	clr _Buffer[0]
  24  001C  1F00     R  	clr _Buffer[1]
  24  001D  1F00     R  	clr _Buffer[2]
  24  001E  1F00     R  	clr _Buffer[3]
  25  001F              #line 25 "C:\Learn\Program_HT_IDE3000\Source\U3_3_1.c"
  25  001F  3010        	set [16].0
  26  0020              #line 26 "C:\Learn\Program_HT_IDE3000\Source\U3_3_1.c"
  26  0020  33E9        	set [105].7
  26  0021  37E9        	clr [105].7
  26  0022              _L4:
  28  0022              #line 28 "C:\Learn\Program_HT_IDE3000\Source\U3_3_1.c"
  28  0022  33E9        	set [105].7
  28  0023  37E9        	clr [105].7
  28  0024              _L3:
  29  0024              #line 29 "C:\Learn\Program_HT_IDE3000\Source\U3_3_1.c"
  29  0024  3F69        	sz [105].6
  29  0025  2800     R  	jmp _L3
  30  0026              #line 30 "C:\Learn\Program_HT_IDE3000\Source\U3_3_1.c"
  30  0026  0768        	mov a,[104]
  30  0027  0080     E  	mov rc,a
  30  0028  1F00     E  	clr rb
  30  0029  0700     E  	mov a,rc
  30  002A  0080     E  	mov re,a
  30  002B  0767        	mov a,[103]
  30  002C  0500     E  	or a,rb
  30  002D  0080     E  	mov rd,a
  32  002E              #line 32 "C:\Learn\Program_HT_IDE3000\Source\U3_3_1.c"
  32  002E  0700     E  	mov a,rd
  32  002F  0080     E  	mov rd,a
  32  0030  0700     E  	mov a,re
  32  0031  0080     E  	mov re,a
"File: U3_3_1.c      Assembler  Version HGASM0202      Page 4

  32  0032  1F00     E  	clr rf
  32  0033  1F00     E  	clr rg
  32  0034  0700     E  	mov a,rd
  32  0035  0080     E  	mov _builtin_holtek_mulsi3_2[0],a
  32  0036  0700     E  	mov a,re
  32  0037  0080     E  	mov _builtin_holtek_mulsi3_2[1],a
  32  0038  0700     E  	mov a,rf
  32  0039  0080     E  	mov _builtin_holtek_mulsi3_2[2],a
  32  003A  0700     E  	mov a,rg
  32  003B  0080     E  	mov _builtin_holtek_mulsi3_2[3],a
  32  003C  0F88        	mov a,136
  32  003D  0080     E  	mov _builtin_holtek_mulsi3_2[4],a
  32  003E  0F13        	mov a,19
  32  003F  0080     E  	mov _builtin_holtek_mulsi3_2[5],a
  32  0040  0F00        	mov a,0
  32  0041  0080     E  	mov _builtin_holtek_mulsi3_2[6],a
  32  0042  0F00        	mov a,0
  32  0043  0080     E  	mov _builtin_holtek_mulsi3_2[7],a
  32  0044              	fcall _builtin_holtek_mulsi3
  32  004B  0700     E  	mov a,_builtin_holtek_mulsi3_2[8]
  32  004C  0080     E  	mov rd,a
  32  004D  0700     E  	mov a,_builtin_holtek_mulsi3_2[9]
  32  004E  0080     E  	mov re,a
  32  004F  0700     E  	mov a,_builtin_holtek_mulsi3_2[10]
  32  0050  0080     E  	mov rf,a
  32  0051  0700     E  	mov a,_builtin_holtek_mulsi3_2[11]
  32  0052  0080     E  	mov rg,a
  32  0053  0F0C        	mov a,12
  32  0054              _LI1:
  32  0054  340A        	clr c
  32  0055  1B80     E  	rrc rg
  32  0056  1B80     E  	rrc rf
  32  0057  1B80     E  	rrc re
  32  0058  1B80     E  	rrc rd
  32  0059  1785        	sdz acc
  32  005A  2800     R  	jmp _LI1
  38  005B              #line 38 "C:\Learn\Program_HT_IDE3000\Source\U3_3_1.c"
  38  005B  1B10        	rrca intc
  38  005C  3410        	clr intc.0
  38  005D  0700     E  	mov a,rd
  38  005E  00D9        	mov mduwr0,a
  38  005F  0700     E  	mov a,re
  38  0060  00DA        	mov mduwr1,a
  38  0061  0FE8        	mov a,232
  38  0062  00DD        	mov mduwr4,a
  38  0063  0F03        	mov a,3
  38  0064  00DE        	mov mduwr5,a
  38  0065  0F06        	mov a,6
  38  0066              _LI2:
  38  0066  1785        	sdz acc
  38  0067  2800     R  	jmp _LI2
  38  0068  0759        	mov a,mduwr0
  38  0069  0080     R  	mov _main_2[0],a
  38  006A  075A        	mov a,mduwr1
  38  006B  0080     R  	mov _main_2[1],a
  38  006C  3C0A        	sz c
  38  006D  3010        	set intc.0
  38  006E  0700     R  	mov a,_main_2[0]
  38  006F  0080     R  	mov _Buffer[3],a
  38  0070  1B10        	rrca intc
"File: U3_3_1.c      Assembler  Version HGASM0202      Page 5

  38  0071  3410        	clr intc.0
  38  0072  0700     E  	mov a,rd
  38  0073  00D9        	mov mduwr0,a
  38  0074  0700     E  	mov a,re
  38  0075  00DA        	mov mduwr1,a
  38  0076  0FE8        	mov a,232
  38  0077  00DD        	mov mduwr4,a
  38  0078  0F03        	mov a,3
  38  0079  00DE        	mov mduwr5,a
  38  007A  0F06        	mov a,6
  38  007B              _LI3:
  38  007B  1785        	sdz acc
  38  007C  2800     R  	jmp _LI3
  38  007D  075D        	mov a,mduwr4
  38  007E  0080     E  	mov rd,a
  38  007F  075E        	mov a,mduwr5
  38  0080  0080     E  	mov re,a
  38  0081  3C0A        	sz c
  38  0082  3010        	set intc.0
  39  0083              #line 39 "C:\Learn\Program_HT_IDE3000\Source\U3_3_1.c"
  39  0083  1B10        	rrca intc
  39  0084  3410        	clr intc.0
  39  0085  0700     E  	mov a,rd
  39  0086  00D9        	mov mduwr0,a
  39  0087  0700     E  	mov a,re
  39  0088  00DA        	mov mduwr1,a
  39  0089  0F64        	mov a,100
  39  008A  00DD        	mov mduwr4,a
  39  008B  0F00        	mov a,0
  39  008C  00DE        	mov mduwr5,a
  39  008D  0F06        	mov a,6
  39  008E              _LI4:
  39  008E  1785        	sdz acc
  39  008F  2800     R  	jmp _LI4
  39  0090  0759        	mov a,mduwr0
  39  0091  0080     E  	mov rf,a
  39  0092  075A        	mov a,mduwr1
  39  0093  0080     E  	mov rg,a
  39  0094  3C0A        	sz c
  39  0095  3010        	set intc.0
  39  0096  0700     E  	mov a,rf
  39  0097  0080     R  	mov _Buffer[2],a
  39  0098  1B10        	rrca intc
  39  0099  3410        	clr intc.0
  39  009A  0700     E  	mov a,rd
  39  009B  00D9        	mov mduwr0,a
  39  009C  0700     E  	mov a,re
  39  009D  00DA        	mov mduwr1,a
  39  009E  0F64        	mov a,100
  39  009F  00DD        	mov mduwr4,a
  39  00A0  0F00        	mov a,0
  39  00A1  00DE        	mov mduwr5,a
  39  00A2  0F06        	mov a,6
  39  00A3              _LI5:
  39  00A3  1785        	sdz acc
  39  00A4  2800     R  	jmp _LI5
  39  00A5  075D        	mov a,mduwr4
  39  00A6  0080     E  	mov rd,a
  39  00A7  075E        	mov a,mduwr5
  39  00A8  0080     E  	mov re,a
"File: U3_3_1.c      Assembler  Version HGASM0202      Page 6

  39  00A9  3C0A        	sz c
  39  00AA  3010        	set intc.0
  40  00AB              #line 40 "C:\Learn\Program_HT_IDE3000\Source\U3_3_1.c"
  40  00AB  1B10        	rrca intc
  40  00AC  3410        	clr intc.0
  40  00AD  0700     E  	mov a,rd
  40  00AE  00D9        	mov mduwr0,a
  40  00AF  0700     E  	mov a,re
  40  00B0  00DA        	mov mduwr1,a
  40  00B1  0F0A        	mov a,10
  40  00B2  00DD        	mov mduwr4,a
  40  00B3  0F00        	mov a,0
  40  00B4  00DE        	mov mduwr5,a
  40  00B5  0F06        	mov a,6
  40  00B6              _LI6:
  40  00B6  1785        	sdz acc
  40  00B7  2800     R  	jmp _LI6
  40  00B8  0759        	mov a,mduwr0
  40  00B9  0080     E  	mov rf,a
  40  00BA  075A        	mov a,mduwr1
  40  00BB  0080     E  	mov rg,a
  40  00BC  3C0A        	sz c
  40  00BD  3010        	set intc.0
  40  00BE  0700     E  	mov a,rf
  40  00BF  0080     R  	mov _Buffer[1],a
  40  00C0  1B10        	rrca intc
  40  00C1  3410        	clr intc.0
  40  00C2  0700     E  	mov a,rd
  40  00C3  00D9        	mov mduwr0,a
  40  00C4  0700     E  	mov a,re
  40  00C5  00DA        	mov mduwr1,a
  40  00C6  0F0A        	mov a,10
  40  00C7  00DD        	mov mduwr4,a
  40  00C8  0F00        	mov a,0
  40  00C9  00DE        	mov mduwr5,a
  40  00CA  0F06        	mov a,6
  40  00CB              _LI7:
  40  00CB  1785        	sdz acc
  40  00CC  2800     R  	jmp _LI7
  40  00CD  075D        	mov a,mduwr4
  40  00CE  0080     E  	mov rd,a
  40  00CF  075E        	mov a,mduwr5
  40  00D0  0080     E  	mov re,a
  40  00D1  3C0A        	sz c
  40  00D2  3010        	set intc.0
  41  00D3              #line 41 "C:\Learn\Program_HT_IDE3000\Source\U3_3_1.c"
  41  00D3  0700     E  	mov a,rd
  41  00D4  0080     R  	mov _Buffer[0],a
  42  00D5              #line 42 "C:\Learn\Program_HT_IDE3000\Source\U3_3_1.c"
  42  00D5  2800     R  	jmp _L4
  42  00D6  2800     R  	jmp $
  42  00D7              _main endp
  42  00D7              
  42  00D7              @dummy endp
  42  00D7              
  42  00D7              #line 42 "C:\Learn\Program_HT_IDE3000\Source\U3_3_1.c"
  42  00D7              #pragma debug scope 1 1
  42  00D7              public _ISR_TB0
  42  00D7              #pragma debug scope 3 1
  45  00D7              #line 45 "C:\Learn\Program_HT_IDE3000\Source\U3_3_1.c"
"File: U3_3_1.c      Assembler  Version HGASM0202      Page 7

  45  00D7              rombank 0 @ISR_TB0_code
  45  0000              @ISR_TB0_code .section at 36 'code'
  45  0000  0080     E  	mov r1,a
  45  0001  070B        	mov a,bp
  45  0002  1F0B        	clr bp
  45  0003  2800     R  	jmp _ISR_TB0
  45  0004              ROMBANK 0 _ISR_TB0
  45  0004              #pragma debug scope 1 1
  45  0004              @dummy36 endp
  45  0004              #pragma debug scope 4 1
  45  0000              _ISR_TB0 .section 'code'
  45  0000              _ISR_TB0 proc
  45  0000  0080     E  	mov r2,a
  45  0001  070A        	mov a, status
  45  0002  0080     E  	mov r3,a
  45  0003  0703        	mov a,mp
  45  0004  0080     E  	mov r4,a
  45  0005  0704        	mov a,sbp
  45  0006  0080     E  	mov r5,a
  45  0007  0707        	mov a,tblp
  45  0008  0080     E  	mov r6,a
  45  0009  0709        	mov a,tbhp
  45  000A  0080     E  	mov r7,a
  45  000B  1F27        	clr [39]
  46  000C              #line 46 "C:\Learn\Program_HT_IDE3000\Source\U3_3_1.c"
  46  000C  0700     R  	mov a,_ScanCode[0]
  46  000D  00A1        	mov [33],a
  47  000E              #line 47 "C:\Learn\Program_HT_IDE3000\Source\U3_3_1.c"
  47  000E  0700     R  	mov a,_ptr[0]
  47  000F  0080     E  	mov rb,a
  47  0010  0700     R  	mov a,_ptr[1]
  47  0011  0080     E  	mov rc,a
  47  0012  0F01        	mov a,1
  47  0013  0300     E  	add a,rb
  47  0014  0080     R  	mov _ptr[0],a
  47  0015  0F00        	mov a,0
  47  0016  1300     E  	adc a,rc
  47  0017  0080     R  	mov _ptr[1],a
  47  0018  0700     E  	mov a,rb
  47  0019  0083        	mov mp,a
  47  001A  0700     E  	mov a,rc
  47  001B  0084        	mov sbp,a
  47  001C              	fcall _Crom2Prom
  47  0023  0080     E  	mov ra,a
  47  0024  0F00     R  	mov a,low offset _SEG_TAB
  47  0025  0300     E  	add a,ra
  47  0026  0083        	mov mp,a
  47  0027  0F00     R  	mov a,high offset _SEG_TAB
  47  0028  1F04        	clr sbp
  47  0029  1384        	adcm a,sbp
  47  002A              	fcall _Crom2Prom
  47  0031  00A7        	mov [39],a
  48  0032              #line 48 "C:\Learn\Program_HT_IDE3000\Source\U3_3_1.c"
  48  0032              ;# 48 "C:\Learn\Program_HT_IDE3000\Source\U3_3_1.c" 1
  48  0032  1880     R  	rl _ScanCode[0]
  49  0033              #line 49 "C:\Learn\Program_HT_IDE3000\Source\U3_3_1.c"
  49  0033  0700     R  	mov a,_ScanCode[0]
  49  0034  0A10        	sub a,16
  49  0035  390A        	snz z
  49  0036  2800     R  	jmp _L7
"File: U3_3_1.c      Assembler  Version HGASM0202      Page 8

  50  0037              #line 50 "C:\Learn\Program_HT_IDE3000\Source\U3_3_1.c"
  50  0037  0F80        	mov a,128
  50  0038  03A7        	addm a,[39]
  50  0039              _L7:
  51  0039              #line 51 "C:\Learn\Program_HT_IDE3000\Source\U3_3_1.c"
  51  0039  0700     R  	mov a,_ScanCode[0]
  51  003A  0A10        	sub a,16
  51  003B  390A        	snz z
  51  003C  2800     R  	jmp _L6
  52  003D              #line 52 "C:\Learn\Program_HT_IDE3000\Source\U3_3_1.c"
  52  003D  0F01        	mov a,1
  52  003E  0080     R  	mov _ScanCode[0],a
  52  003F  0F00     R  	mov a,low offset _Buffer
  52  0040  0080     R  	mov _ptr[0],a
  52  0041  0F00     R  	mov a,high offset _Buffer
  52  0042  0080     R  	mov _ptr[1],a
  52  0043              _L6:
  52  0043  0700     E  	mov a,r2
  52  0044  008B        	mov bp,a
  52  0045  0700     E  	mov a,r3
  52  0046  008A        	mov status,a
  52  0047  0700     E  	mov a,r4
  52  0048  0083        	mov mp,a
  52  0049  0700     E  	mov a,r5
  52  004A  0084        	mov sbp,a
  52  004B  0700     E  	mov a,r6
  52  004C  0087        	mov tblp,a
  52  004D  0700     E  	mov a,r7
  52  004E  0089        	mov tbhp,a
  52  004F  1D05        	tabrdc acc
  52  0050  0700     E  	mov a,r1
  52  0051  0004        	reti
  52  0052              _ISR_TB0 endp
  52  0052              
  52  0052              #line 52 "C:\Learn\Program_HT_IDE3000\Source\U3_3_1.c"
  52  0052              #pragma debug scope 1 1
  12  0052              #line 12 "C:\Learn\Program_HT_IDE3000\Source\U3_3_1.c"
  12  0052              public _Buffer
  12  0000              @HCCINIT0_Buffer .section 'data'
  12  0000  0004[       _Buffer	db 4 dup(0)
            00
            ]
  12  0004              #pragma debug array 42 8 4 1
  12  0004              #pragma debug array 42 8 4 1
  12  0004              #pragma debug variable 42 1 _Buffer "Buffer"
  12  0004              
  12  0000              @HCCINIT .section 'data'
  12  0000              #line 12 "C:\Learn\Program_HT_IDE3000\Source\U3_3_1.c"
  12  0000              public _ScanCode
  12  0000              @HCCINIT0_ScanCode .section 'data'
  12  0000              _ScanCode	db 0
  12  0001              #pragma debug variable 8 1 _ScanCode "ScanCode"
  12  0001              
  12  0000              @HCCINIT .section 'data'
  12  0000              #line 12 "C:\Learn\Program_HT_IDE3000\Source\U3_3_1.c"
  12  0000              public _ptr
  12  0000              @HCCINIT0_ptr .section 'data'
  12  0000  0002[       _ptr	db 2 dup(0)
            00
            ]
"File: U3_3_1.c      Assembler  Version HGASM0202      Page 9

  12  0002              #pragma debug pointer 43 8 1
  12  0002              #pragma debug pointer 43 8 1
  12  0002              #pragma debug variable 43 1 _ptr "ptr"
  12  0002              
  12  0000              @HCCINIT .section 'data'
  12  0000              public _SEG_TAB
  12  0000              @crom	.section 'crom'
   9  0000              #line 9 "C:\Learn\Program_HT_IDE3000\Source\U3_3_1.c"
   9  0000              @crom	.section	'crom'
   9  0000              _SEG_TAB:
   9  0000              #pragma debug array 44 8 10 1
   9  0000              #pragma debug array 44 8 10 1
   9  0000              #pragma debug variable 44 1 _SEG_TAB "SEG_TAB"
   9  0000              	db 63
   9  0001              	db 6
   9  0001              	db 91
   9  0002              	db 79
   9  0002              	db 102
   9  0003              	db 109
   9  0003              	db 125
   9  0004              	db 7
   9  0004              	db 127
   9  0005              	db 103
   9  0005              #pragma debug struct_end
   9  0005              #pragma debug struct_end
   9  0005              #pragma debug union_end
   9  0005              #pragma debug union_end
   9  0005              #pragma debug variable 46 1 ___intc0 "__intc0" 1
   9  0005              #pragma debug struct_end
   9  0005              #pragma debug struct_end
   9  0005              #pragma debug union_end
   9  0005              #pragma debug union_end
   9  0005              #pragma debug variable 48 1 ___intc2 "__intc2" 1
   9  0005              #pragma debug struct_end
   9  0005              #pragma debug struct_end
   9  0005              #pragma debug union_end
   9  0005              #pragma debug union_end
   9  0005              #pragma debug variable 50 1 ___pe "__pe" 1
   9  0005              #pragma debug struct_end
   9  0005              #pragma debug struct_end
   9  0005              #pragma debug union_end
   9  0005              #pragma debug union_end
   9  0005              #pragma debug variable 52 1 ___pec "__pec" 1
   9  0005              #pragma debug struct_end
   9  0005              #pragma debug struct_end
   9  0005              #pragma debug union_end
   9  0005              #pragma debug union_end
   9  0005              #pragma debug variable 54 1 ___pg "__pg" 1
   9  0005              #pragma debug struct_end
   9  0005              #pragma debug struct_end
   9  0005              #pragma debug union_end
   9  0005              #pragma debug union_end
   9  0005              #pragma debug variable 56 1 ___pgc "__pgc" 1
   9  0005              #pragma debug struct_end
   9  0005              #pragma debug struct_end
   9  0005              #pragma debug union_end
   9  0005              #pragma debug union_end
   9  0005              #pragma debug variable 58 1 ___wdtc "__wdtc" 1
   9  0005              #pragma debug struct_end
   9  0005              #pragma debug struct_end
"File: U3_3_1.c      Assembler  Version HGASM0202      Page 10

   9  0005              #pragma debug union_end
   9  0005              #pragma debug union_end
   9  0005              #pragma debug variable 60 1 ___psc0r "__psc0r" 1
   9  0005              #pragma debug struct_end
   9  0005              #pragma debug struct_end
   9  0005              #pragma debug union_end
   9  0005              #pragma debug union_end
   9  0005              #pragma debug variable 62 1 ___tb0c "__tb0c" 1
   9  0005              #pragma debug variable 8 1 ___sadol "__sadol" 1
   9  0005              #pragma debug variable 8 1 ___sadoh "__sadoh" 1
   9  0005              #pragma debug struct_end
   9  0005              #pragma debug struct_end
   9  0005              #pragma debug union_end
   9  0005              #pragma debug union_end
   9  0005              #pragma debug variable 64 1 ___sadc0 "__sadc0" 1
   9  0005              #pragma debug struct_end
   9  0005              #pragma debug struct_end
   9  0005              #pragma debug union_end
   9  0005              #pragma debug union_end
   9  0005              #pragma debug variable 66 1 ___sadc1 "__sadc1" 1
   9  0005              #pragma debug struct_end
   9  0005              #pragma debug struct_end
   9  0005              #pragma debug union_end
   9  0005              #pragma debug union_end
   9  0005              #pragma debug variable 68 1 ___sadc2 "__sadc2" 1
   9  0005              #pragma debug struct_end
   9  0005              #pragma debug struct_end
   9  0005              #pragma debug union_end
   9  0005              #pragma debug union_end
   9  0005              #pragma debug variable 70 1 ___pds0 "__pds0" 1
   9  0005              extern r1:byte
   9  0005              extern r2:byte
   9  0005              extern r3:byte
   9  0005              extern r4:byte
   9  0005              extern r5:byte
   9  0005              extern r6:byte
   9  0005              extern r7:byte
  14  0005              #line 14 "C:\Learn\Program_HT_IDE3000\Source\U3_3_1.c"
  14  0000              @code .section at 0 'code'
  14  0000  1F0B        	clr bp
  14  0001  2800     R  	jmp _main_startup1
  14  0002              
  14  0002              extern _builtin_holtek_mulsi3_2:byte
  14  0002              extern _builtin_holtek_mulsi3:near
  14  0002              
  14  0002              ; 
  14  0002              ; Generated by holtek-gcc v3.19, Tue Apr 07 14:46:41 2020
  14  0002              ; Rebuild 718
  14  0002              ; end of file


        0 Errors, 0