"File: U4Ext_01.c    Assembler  Version HGASM0202      Page 1


   1  0000              ; Generated by holtek-gcc v3.19, Tue Mar 31 14:18:02 2020
   2  0000              ; 
   3  0000              ; Configuration:
   4  0000              ;       with long instruction
   5  0000              ;       Multi-ROM, Multi-RAM
   6  0000              ;       bits_per_rom_unit:16
   7  0000              ;       with mp1
   8  0000              ;       with tbhp, address(0x9)
   9  0000              ;          Use tabrd-const
  10  0000              ;       
  11  0000              ; SFR address of long-instruction arch:
  12  0000              ;    mp0 = -1,1,0
  13  0000              ;    mp1 = 4,3,2
  14  0000              ;    mp2 = 14,13,12
  15  0000              ;    tbp = 9,7,8
  16  0000              ;    acc = 5
  17  0000              ;    pcl = 6
  18  0000              ;    status = 10
  19  0000              ;    bp = 11
  20  0000              ;    intc = 16
  21  0000              ;       
  22  0000              ;       
  23  0000              ; use 'tabrdc' instead of 'tabrd'
  24  0000              ;       
  25  0000              
  26  0000              #pragma translator "holtek-gcc 4.6.4" "3.19" "build 20130711"
  27  0000              ; Rebuild 718
  28  0000              
  29  0000              ir equ [2]
  30  0000              mp equ [3]
  31  0000              sbp equ [4]
  32  0000              acc equ [5]
  33  0000              bp equ [11]
  34  0000              tblp equ [7]
  35  0000              tbhp equ [9]
  36  0000              status equ [10]
  37  0000              c equ [10].0
  38  0000              ac equ [10].1
  39  0000              z equ [10].2
  40  0000              ov equ [10].3
  41  0000              cz equ [10].6
  42  0000              sc equ [10].7
  43  0000              intc equ [16]
  44  0000              mduwr0 equ [59h]
  45  0000              mduwr1 equ [5ah]
  46  0000              mduwr2 equ [5bh]
  47  0000              mduwr3 equ [5ch]
  48  0000              mduwr4 equ [5dh]
  49  0000              mduwr5 equ [5eh]
  50  0000              mduwrctrl equ [5fh]
  51  0000              
  52  0000              extern ra:byte
  53  0000              extern rb:byte
  54  0000              extern rc:byte
  55  0000              extern rd:byte
  56  0000              extern re:byte
  57  0000              extern rf:byte
  58  0000              extern rg:byte
  59  0000              extern rh:byte
"File: U4Ext_01.ASM  Assembler  Version HGASM0202      Page 2

  60  0000              extern _Crom2Prom:near
  61  0000              extern _Crom2PromNext:near
  62  0000              
  63  0000              RAMBANK 0 @BITDATASEC, @BITDATASEC1
  64  0000              @HCCINIT	.section 'data'
  65  0000              @HCCINIT0	.section 'data'
  66  0000              @BITDATASEC	 .section 'data'
  67  0000              @BITDATASEC1	 .section 'data'
  68  0000              
  69  0000              #pragma debug scope 1 1
  70  0000              	extern __DELAY3:near
  71  0000              	extern __DELAYX3:near
  72  0000              	extern __DELAYX6:near
  73  0000              	extern __DELAYY5:near
  74  0000              	extern __DELAYY3:near
  75  0000              	extern _builtin_holtek_delay_2:byte
  76  0000              public _PAUSE
  77  0000              #pragma debug scope 2 1

  49  0000              #line 49 "C:\Learn\Program_HT_IDE3000\Source\U4\U4Ext_01.c"
  49  0000              _PAUSE .section 'code'
  49  0000              _PAUSE proc
  49  0000  00              local _PAUSE_2 db 1 dup(?)	; 0,1
  49  0000  0080     R  	mov _PAUSE_2[0],a
  49  0001              #pragma debug variable 8 2 _PAUSE_2+0 "i"
  50  0001              #line 50 "C:\Learn\Program_HT_IDE3000\Source\U4\U4Ext_01.c"
  50  0001  1F00     E  	clr ra
  50  0002  2800     R  	jmp _L2
  50  0003              _L3:
  50  0003              #line 50 "C:\Learn\Program_HT_IDE3000\Source\U4\U4Ext_01.c"
  50  0003              ;# 50 "C:\Learn\Program_HT_IDE3000\Source\U4\U4Ext_01.c" 1
  50  0003              	IF 20>263690
  50  0003              ;# 50 "C:\Learn\Program_HT_IDE3000\Source\U4\U4Ext_01.c" 1
  50  0003              	ERRMESSAGE 'the value 20of the argument exceeds the maxinum 263690'
  50  0003              	ENDIF
  50  0003              ;# 50 "C:\Learn\Program_HT_IDE3000\Source\U4\U4Ext_01.c" 1
  50  0003              	IF 20<0
  50  0003              ;# 50 "C:\Learn\Program_HT_IDE3000\Source\U4\U4Ext_01.c" 1
  50  0003              	ERRMESSAGE 'the value 20 of the argument exceeds the mininum 0'
  50  0003              	ENDIF
  50  0003              ;# 50 "C:\Learn\Program_HT_IDE3000\Source\U4\U4Ext_01.c" 1
  50  0003              	IF 20==0
  50  0003              ;# 50 "C:\Learn\Program_HT_IDE3000\Source\U4\U4Ext_01.c" 1
  50  0003              	JMP $
  50  0003              	ENDIF
  50  0003              ;# 50 "C:\Learn\Program_HT_IDE3000\Source\U4\U4Ext_01.c" 1
  50  0003              	IF (20>=1) AND (20<( 4 + __PBP__ * 2))
  50  0003              ;# 50 "C:\Learn\Program_HT_IDE3000\Source\U4\U4Ext_01.c" 1
  50  0003              	NOP
  50  0003              	ENDIF
  50  0003              ;# 50 "C:\Learn\Program_HT_IDE3000\Source\U4\U4Ext_01.c" 1
  50  0003              	IF (20>=2) AND (20<( 4 + __PBP__ * 2))
  50  0003              ;# 50 "C:\Learn\Program_HT_IDE3000\Source\U4\U4Ext_01.c" 1
  50  0003              	NOP
  50  0003              	ENDIF
  50  0003              ;# 50 "C:\Learn\Program_HT_IDE3000\Source\U4\U4Ext_01.c" 1
  50  0003              	IF (20>=3) AND (20<( 4 + __PBP__ * 2))
  50  0003              ;# 50 "C:\Learn\Program_HT_IDE3000\Source\U4\U4Ext_01.c" 1
  50  0003              	NOP
  50  0003              	ENDIF
"File: U4Ext_01.c    Assembler  Version HGASM0202      Page 3

  50  0003              ;# 50 "C:\Learn\Program_HT_IDE3000\Source\U4\U4Ext_01.c" 1
  50  0003              	IF (20>=4) AND (20<( 4 + __PBP__ * 2)) AND ( __PBP__ > 0 )
  50  0003              ;# 50 "C:\Learn\Program_HT_IDE3000\Source\U4\U4Ext_01.c" 1
  50  0003              	NOP
  50  0003              	ENDIF
  50  0003              ;# 50 "C:\Learn\Program_HT_IDE3000\Source\U4\U4Ext_01.c" 1
  50  0003              	IF (20>=5) AND (20<( 4 + __PBP__ * 2)) AND ( __PBP__ > 0 )
  50  0003              ;# 50 "C:\Learn\Program_HT_IDE3000\Source\U4\U4Ext_01.c" 1
  50  0003              	NOP
  50  0003              	ENDIF
  50  0003              ;# 50 "C:\Learn\Program_HT_IDE3000\Source\U4\U4Ext_01.c" 1
  50  0003              	IF (20>=6) AND (20<( 4 + __PBP__ * 2))  AND ( __PBP__ > 1 )
  50  0003              ;# 50 "C:\Learn\Program_HT_IDE3000\Source\U4\U4Ext_01.c" 1
  50  0003              	NOP
  50  0003              	ENDIF
  50  0003              ;# 50 "C:\Learn\Program_HT_IDE3000\Source\U4\U4Ext_01.c" 1
  50  0003              	IF (20>=7) AND (20<( 4 + __PBP__ * 2))  AND ( __PBP__ > 1 )
  50  0003              ;# 50 "C:\Learn\Program_HT_IDE3000\Source\U4\U4Ext_01.c" 1
  50  0003              	NOP
  50  0003              	ENDIF
  50  0003              ;# 50 "C:\Learn\Program_HT_IDE3000\Source\U4\U4Ext_01.c" 1
  50  0003              	IF (20>=8) AND (20<( 4 + __PBP__ * 2))  AND ( __PBP__ > 2 )
  50  0003              ;# 50 "C:\Learn\Program_HT_IDE3000\Source\U4\U4Ext_01.c" 1
  50  0003              	NOP
  50  0003              	ENDIF
  50  0003              ;# 50 "C:\Learn\Program_HT_IDE3000\Source\U4\U4Ext_01.c" 1
  50  0003              	IF (20==9)  AND ( __PBP__ > 2 )
  50  0003              ;# 50 "C:\Learn\Program_HT_IDE3000\Source\U4\U4Ext_01.c" 1
  50  0003              	NOP
  50  0003              	ENDIF
  50  0003              ;# 50 "C:\Learn\Program_HT_IDE3000\Source\U4\U4Ext_01.c" 1
  50  0003              	IF (20< ( 8 + __PBP__ * 2)) AND (20>( 3 + __PBP__ * 2))
  50  0003              ;# 50 "C:\Learn\Program_HT_IDE3000\Source\U4\U4Ext_01.c" 1
  50  0003              	fcall __DELAY3 + ( 7 + __PBP__ * 2) -20
  50  0003              	ENDIF
  50  0003              ;# 50 "C:\Learn\Program_HT_IDE3000\Source\U4\U4Ext_01.c" 1
  50  0003              	IF (20< ( 0404h + __PBP__ * 2)) AND (20>( 7 + __PBP__ * 2))
  50  0003              ;# 50 "C:\Learn\Program_HT_IDE3000\Source\U4\U4Ext_01.c" 1
  50  0003  0F02        	MOV A,(20-( 4 + __PBP__ * 2))/4
  50  0004              ;# 50 "C:\Learn\Program_HT_IDE3000\Source\U4\U4Ext_01.c" 1
  50  0004              	fcall __DELAYX3 + 3 -((20-( 4 + __PBP__ * 2)) MOD 4) 
  50  000B              	ENDIF
  50  000B              ;# 50 "C:\Learn\Program_HT_IDE3000\Source\U4\U4Ext_01.c" 1
  50  000B              	IF (20< ( 040bh + __PBP__ * 2)) AND (20> ( 0403h + __PBP__ * 2))
  50  000B              ;# 50 "C:\Learn\Program_HT_IDE3000\Source\U4\U4Ext_01.c" 1
  50  000B              	MOV A,0 
  50  000B              ;# 50 "C:\Learn\Program_HT_IDE3000\Source\U4\U4Ext_01.c" 1
  50  000B              	fcall __DELAYX6 + ( 040ah + __PBP__ * 2) -20
  50  000B              	ENDIF
  50  000B              ;# 50 "C:\Learn\Program_HT_IDE3000\Source\U4\U4Ext_01.c" 1
  50  000B              	IF (20 >= ( 040bh + __PBP__ * 2)) AND ((((20-( 9 + __PBP__ * 2))%0402h)/4+1)>256)
  50  000B              ;# 50 "C:\Learn\Program_HT_IDE3000\Source\U4\U4Ext_01.c" 1
  50  000B              	MOV A,(20-( 9 + __PBP__ * 2))/0402h
  50  000B              ;# 50 "C:\Learn\Program_HT_IDE3000\Source\U4\U4Ext_01.c" 1
  50  000B              	MOV _builtin_holtek_delay_2,A
  50  000B              ;# 50 "C:\Learn\Program_HT_IDE3000\Source\U4\U4Ext_01.c" 1
  50  000B              	MOV A,0
  50  000B              ;# 50 "C:\Learn\Program_HT_IDE3000\Source\U4\U4Ext_01.c" 1
  50  000B              	fcall __DELAYY5 +5- (((20-( 9 + __PBP__ * 2))%0402h)%6) 
  50  000B              	ENDIF
"File: U4Ext_01.c    Assembler  Version HGASM0202      Page 4

  50  000B              ;# 50 "C:\Learn\Program_HT_IDE3000\Source\U4\U4Ext_01.c" 1
  50  000B              	IF (20 >= ( 040bh + __PBP__ * 2)) AND ((((20-( 9 + __PBP__ * 2))%0402h)/4+1)<=256)
  50  000B              ;# 50 "C:\Learn\Program_HT_IDE3000\Source\U4\U4Ext_01.c" 1
  50  000B              	MOV A,(20-( 9 + __PBP__ * 2))/0402h
  50  000B              ;# 50 "C:\Learn\Program_HT_IDE3000\Source\U4\U4Ext_01.c" 1
  50  000B              	MOV _builtin_holtek_delay_2,A
  50  000B              ;# 50 "C:\Learn\Program_HT_IDE3000\Source\U4\U4Ext_01.c" 1
  50  000B              	MOV A,((20-( 9 + __PBP__ * 2))%0402h)/4+1
  50  000B              ;# 50 "C:\Learn\Program_HT_IDE3000\Source\U4\U4Ext_01.c" 1
  50  000B              	fcall __DELAYY3 +3-(((20-( 9 + __PBP__ * 2))%0402h)%4) 
  50  000B              	ENDIF
  50  000B  1480     E  	inc ra
  50  000C              _L2:
  50  000C  0700     E  	mov a,ra
  50  000D  0200     R  	sub a,_PAUSE_2[0]
  50  000E  390A        	snz z
  50  000F  2800     R  	jmp _L3
  50  0010  0003        	ret
  50  0011              _PAUSE endp
  50  0011              #line 50 "C:\Learn\Program_HT_IDE3000\Source\U4\U4Ext_01.c"
  50  0011              #pragma debug scope 1 1
  50  0011              ___pcc equ [28]
  50  0011              ___pcpu equ [29]
  50  0011              ___pc equ [27]
  50  0011              public _ScanKey
  50  0011              #pragma debug scope 3 1
  53  0011              #line 53 "C:\Learn\Program_HT_IDE3000\Source\U4\U4Ext_01.c"
  53  0000              _ScanKey .section 'code'
  53  0000              _ScanKey proc
  54  0000              #line 54 "C:\Learn\Program_HT_IDE3000\Source\U4\U4Ext_01.c"
  54  0000  0FF0        	mov a,240
  54  0001  009C        	mov [28],a
  54  0002  0FF0        	mov a,240
  54  0003  009D        	mov [29],a
  55  0004              #line 55 "C:\Learn\Program_HT_IDE3000\Source\U4\U4Ext_01.c"
  55  0004  0FFE        	mov a,254
  55  0005  009B        	mov [27],a
  53  0006              #line 53 "C:\Learn\Program_HT_IDE3000\Source\U4\U4Ext_01.c"
  53  0006  1F00     E  	clr ra
  53  0007              _L10:
  57  0007              #line 57 "C:\Learn\Program_HT_IDE3000\Source\U4\U4Ext_01.c"
  57  0007  3B9B        	snz [27].7
  57  0008  2800     R  	jmp _L6
  59  0009              #line 59 "C:\Learn\Program_HT_IDE3000\Source\U4\U4Ext_01.c"
  59  0009  3F1B        	sz [27].6
  59  000A  2800     R  	jmp _L7
  58  000B              #line 58 "C:\Learn\Program_HT_IDE3000\Source\U4\U4Ext_01.c"
  58  000B  1480     E  	inc ra
  58  000C  2800     R  	jmp _L6
  58  000D              _L7:
  61  000D              #line 61 "C:\Learn\Program_HT_IDE3000\Source\U4\U4Ext_01.c"
  61  000D  3E9B        	sz [27].5
  61  000E  2800     R  	jmp _L8
  60  000F              #line 60 "C:\Learn\Program_HT_IDE3000\Source\U4\U4Ext_01.c"
  60  000F  0F02        	mov a,2
  60  0010  0380     E  	addm a,ra
  60  0011  2800     R  	jmp _L6
  60  0012              _L8:
  63  0012              #line 63 "C:\Learn\Program_HT_IDE3000\Source\U4\U4Ext_01.c"
  63  0012  3E1B        	sz [27].4
"File: U4Ext_01.c    Assembler  Version HGASM0202      Page 5

  63  0013  2800     R  	jmp _L9
  62  0014              #line 62 "C:\Learn\Program_HT_IDE3000\Source\U4\U4Ext_01.c"
  62  0014  0F03        	mov a,3
  62  0015  0380     E  	addm a,ra
  62  0016  2800     R  	jmp _L6
  62  0017              _L9:
  64  0017              #line 64 "C:\Learn\Program_HT_IDE3000\Source\U4\U4Ext_01.c"
  64  0017  0F04        	mov a,4
  64  0018  0380     E  	addm a,ra
  65  0019              #line 65 "C:\Learn\Program_HT_IDE3000\Source\U4\U4Ext_01.c"
  65  0019  071B        	mov a,[27]
  65  001A  039B        	addm a,[27]
  65  001B  301B        	set [27].0
  56  001C              #line 56 "C:\Learn\Program_HT_IDE3000\Source\U4\U4Ext_01.c"
  56  001C  0700     E  	mov a,ra
  56  001D  0A10        	sub a,16
  56  001E  390A        	snz z
  56  001F  2800     R  	jmp _L10
  56  0020              _L6:
  68  0020              #line 68 "C:\Learn\Program_HT_IDE3000\Source\U4\U4Ext_01.c"
  68  0020  0700     E  	mov a,ra
  68  0021  0003        	ret
  68  0022              _ScanKey endp
  68  0022              #line 68 "C:\Learn\Program_HT_IDE3000\Source\U4\U4Ext_01.c"
  68  0022              #pragma debug scope 1 1
  68  0022              ___wdtc equ [62]
  68  0022              ___pdc equ [31]
  68  0022              ___sledc1 equ [86]
  68  0022              ___pd equ [30]
  68  0022              public _main
  68  0022              #pragma debug scope 4 1
  32  0022              #line 32 "C:\Learn\Program_HT_IDE3000\Source\U4\U4Ext_01.c"
  32  0022              IFDEF WITH_DEFAULT_STARTUP
  32  0022              extern _main_initial0:near
  32  0022              extern _main_startup:near
  32  0022              ENDIF
  32  0022              
  32  0022              ROMBANK 0 @start
  32  0000              @start .section com_l 'code'
  32  0000              _main_startup1:
  32  0000              @start .section com_e 'code'
  32  0000  0F00     R  	mov a,bank _main
  32  0001  008B        	mov bp,a
  32  0002  2800     R  	jmp _main
  32  0003              
  32  0000              _main .section 'code'
  32  0000              _main proc
  32  0000  0003[           local _main_2 db 3 dup(?)
            00
            ]
  32  0003              #pragma debug variable 8 4 _main_2+2 "i"
  32  0003              #pragma debug variable 10 4 _main_2+0 "j"
  35  0003              #line 35 "C:\Learn\Program_HT_IDE3000\Source\U4\U4Ext_01.c"
  35  0000  0FAF        	mov a,175
  35  0001  00BE        	mov [62],a
  36  0002              #line 36 "C:\Learn\Program_HT_IDE3000\Source\U4\U4Ext_01.c"
  36  0002  371F        	clr [31].6
  37  0003              #line 37 "C:\Learn\Program_HT_IDE3000\Source\U4\U4Ext_01.c"
  37  0003  0FC0        	mov a,192
  37  0004  04D6        	xorm a,[86]
"File: U4Ext_01.c    Assembler  Version HGASM0202      Page 6

  37  0005              _L17:
  39  0005              #line 39 "C:\Learn\Program_HT_IDE3000\Source\U4\U4Ext_01.c"
  39  0005              	fcall _ScanKey
  39  000C  0080     R  	mov _main_2[2],a
  39  000D  0700     R  	mov a,_main_2[2]
  39  000E  0A10        	sub a,16
  39  000F  3D0A        	sz z
  39  0010  2800     R  	jmp _L17
  39  0011  1F00     R  	clr _main_2[0]
  39  0012  1F00     R  	clr _main_2[1]
  39  0013              _L16:
  40  0013              #line 40 "C:\Learn\Program_HT_IDE3000\Source\U4\U4Ext_01.c"
  40  0013  0700     R  	mov a,_main_2[2]
  40  0014  0080     E  	mov rb,a
  40  0015  1F00     E  	clr rc
  40  0016  340A        	clr c
  40  0017  1A00     E  	rlca rb
  40  0018  0080     E  	mov rd,a
  40  0019  1A00     E  	rlca rc
  40  001A  0080     E  	mov re,a
  40  001B  0F00     R  	mov a,low offset _TAB_Duration
  40  001C  0300     E  	add a,rd
  40  001D  0083        	mov mp,a
  40  001E  0F00     R  	mov a,high offset _TAB_Duration
  40  001F  1300     E  	adc a,re
  40  0020  0084        	mov sbp,a
  40  0021              	fcall _Crom2Prom
  40  0028  0080     E  	mov rd,a
  40  0029              	fcall _Crom2PromNext
  40  0030  0080     E  	mov re,a
  40  0031  0700     R  	mov a,_main_2[0]
  40  0032  0200     E  	sub a,rd
  40  0033  0700     R  	mov a,_main_2[1]
  40  0034  1200     E  	sbc a,re
  40  0035  3C0A        	sz c
  40  0036  2800     R  	jmp _L17
  41  0037              #line 41 "C:\Learn\Program_HT_IDE3000\Source\U4\U4Ext_01.c"
  41  0037  181E        	rla [30]
  41  0038  1885        	rl acc
  41  0039  0E03        	and a,3
  41  003A  0080     E  	mov ra,a
  41  003B  0F01        	mov a,1
  41  003C  0480     E  	xorm a,ra
  41  003D  0F01        	mov a,1
  41  003E  0680     E  	andm a,ra
  41  003F  1900     E  	rra ra
  41  0040  1985        	rr acc
  41  0041  0EC0        	and a,0c0h
  41  0042  0080     E  	mov ra,a
  41  0043  371E        	clr [30].6
  41  0044  0700     E  	mov a,ra
  41  0045  059E        	orm a,[30]
  42  0046              #line 42 "C:\Learn\Program_HT_IDE3000\Source\U4\U4Ext_01.c"
  42  0046  0F00     R  	mov a,low offset _TAB_Pitch
  42  0047  0300     E  	add a,rb
  42  0048  0083        	mov mp,a
  42  0049  0F00     R  	mov a,high offset _TAB_Pitch
  42  004A  1300     E  	adc a,rc
  42  004B  0084        	mov sbp,a
  42  004C              	fcall _Crom2Prom
"File: U4Ext_01.c    Assembler  Version HGASM0202      Page 7

  42  0053              	fcall _PAUSE
  40  005A              #line 40 "C:\Learn\Program_HT_IDE3000\Source\U4\U4Ext_01.c"
  40  005A  1480     R  	inc _main_2[0]
  40  005B  3D0A        	sz z
  40  005C  1480     R  	inc _main_2[1]
  40  005D  2800     R  	jmp _L16
  40  005E  2800     R  	jmp $
  40  005F              _main endp
  40  005F              
  40  005F              @dummy endp
  40  005F              
  40  005F              #line 40 "C:\Learn\Program_HT_IDE3000\Source\U4\U4Ext_01.c"
  40  005F              #pragma debug scope 1 1
  40  005F              public _TAB_Duration
  40  0000              @crom	.section 'crom'
  22  0000              #line 22 "C:\Learn\Program_HT_IDE3000\Source\U4\U4Ext_01.c"
  22  0000              @crom	.section	'crom'
  22  0000              _TAB_Duration:
  22  0000              #pragma debug array 42 12 16 1
  22  0000              #pragma debug array 42 12 16 1
  22  0000              #pragma debug variable 42 1 _TAB_Duration "TAB_Duration"
  22  0000  0105        	dc 261
  22  0001  0125        	dc 293
  22  0002  0149        	dc 329
  22  0003  015D        	dc 349
  22  0004  0188        	dc 392
  22  0005  01B8        	dc 440
  22  0006  01EE        	dc 494
  22  0007  020B        	dc 523
  22  0008  024B        	dc 587
  22  0009  0293        	dc 659
  22  000A  02BA        	dc 698
  22  000B  0311        	dc 785
  22  000C  0370        	dc 880
  22  000D  03DC        	dc 988
  22  000E  0416        	dc 1046
  22  000F  0496        	dc 1174
  22  0010              public _TAB_Pitch
  12  0010              #line 12 "C:\Learn\Program_HT_IDE3000\Source\U4\U4Ext_01.c"
  12  0010              @crom	.section	'crom'
  12  0010              _TAB_Pitch:
  12  0010              #pragma debug array 43 8 16 1
  12  0010              #pragma debug array 43 8 16 1
  12  0010              #pragma debug variable 43 1 _TAB_Pitch "TAB_Pitch"
  12  0010              	db 95
  12  0011              	db 85
  12  0011              	db 75
  12  0012              	db 71
  12  0012              	db 63
  12  0013              	db 56
  12  0013              	db 50
  12  0014              	db 47
  12  0014              	db 42
  12  0015              	db 37
  12  0015              	db 35
  12  0016              	db 31
  12  0016              	db -32
  12  0017              	db -38
  12  0017              	db 47
  12  0018              	db 42
"File: U4Ext_01.c    Assembler  Version HGASM0202      Page 8

  12  0018              #pragma debug struct_end
  12  0018              #pragma debug struct_end
  12  0018              #pragma debug union_end
  12  0018              #pragma debug union_end
  12  0018              #pragma debug variable 45 1 ___pc "__pc" 1
  12  0018              #pragma debug struct_end
  12  0018              #pragma debug struct_end
  12  0018              #pragma debug union_end
  12  0018              #pragma debug union_end
  12  0018              #pragma debug variable 47 1 ___pcc "__pcc" 1
  12  0018              #pragma debug struct_end
  12  0018              #pragma debug struct_end
  12  0018              #pragma debug union_end
  12  0018              #pragma debug union_end
  12  0018              #pragma debug variable 49 1 ___pcpu "__pcpu" 1
  12  0018              #pragma debug struct_end
  12  0018              #pragma debug struct_end
  12  0018              #pragma debug union_end
  12  0018              #pragma debug union_end
  12  0018              #pragma debug variable 51 1 ___pd "__pd" 1
  12  0018              #pragma debug struct_end
  12  0018              #pragma debug struct_end
  12  0018              #pragma debug union_end
  12  0018              #pragma debug union_end
  12  0018              #pragma debug variable 53 1 ___pdc "__pdc" 1
  12  0018              #pragma debug struct_end
  12  0018              #pragma debug struct_end
  12  0018              #pragma debug union_end
  12  0018              #pragma debug union_end
  12  0018              #pragma debug variable 55 1 ___wdtc "__wdtc" 1
  12  0018              #pragma debug struct_end
  12  0018              #pragma debug struct_end
  12  0018              #pragma debug union_end
  12  0018              #pragma debug union_end
  12  0018              #pragma debug variable 57 1 ___sledc1 "__sledc1" 1
  32  0018              #line 32 "C:\Learn\Program_HT_IDE3000\Source\U4\U4Ext_01.c"
  32  0000              @code .section at 0 'code'
  32  0000  1F0B        	clr bp
  32  0001  2800     R  	jmp _main_startup1
  32  0002              
  32  0002              
  32  0002              ; 
  32  0002              ; Generated by holtek-gcc v3.19, Tue Mar 31 14:18:03 2020
  32  0002              ; Rebuild 718
  32  0002              ; end of file


        0 Errors, 0